---
triple:          'arm64-apple-darwin'
binary-path:     a.out
relocations:
  - { offsetInCU: 0x3B, offset: 0x3B, size: 0x8, addend: 0x0, symName: _.str, symObjAddr: 0x248E0, symBinAddr: 0x1000287C0, symSize: 0x0 }
  - { offsetInCU: 0x6B, offset: 0x6B, size: 0x8, addend: 0x0, symName: _.str.1, symObjAddr: 0x24900, symBinAddr: 0x1000287E0, symSize: 0x0 }
  - { offsetInCU: 0x88, offset: 0x88, size: 0x8, addend: 0x0, symName: _.str.2, symObjAddr: 0x24920, symBinAddr: 0x100028800, symSize: 0x0 }
  - { offsetInCU: 0xA6, offset: 0xA6, size: 0x8, addend: 0x0, symName: _.str.3, symObjAddr: 0x24940, symBinAddr: 0x100028820, symSize: 0x0 }
  - { offsetInCU: 0x482A, offset: 0x482A, size: 0x8, addend: 0x0, symName: __ZNSt3__124__put_character_sequenceB8ue170006IcNS_11char_traitsIcEEEERNS_13basic_ostreamIT_T0_EES7_PKS4_m, symObjAddr: 0xA96C, symBinAddr: 0x10000E45C, symSize: 0x74C }
  - { offsetInCU: 0x7A4C, offset: 0x7A4C, size: 0x8, addend: 0x0, symName: __ZNSt3__17advanceB8ue170006INS_11__wrap_iterIPNS_4pairIiiEEEEllvEEvRT_T0_, symObjAddr: 0x18E40, symBinAddr: 0x10001C930, symSize: 0x38 }
  - { offsetInCU: 0x7D84, offset: 0x7D84, size: 0x8, addend: 0x0, symName: __ZNSt3__17advanceB8ue170006IPNS_4pairIiiEEllvEEvRT_T0_, symObjAddr: 0x2289C, symBinAddr: 0x10002638C, symSize: 0x38 }
  - { offsetInCU: 0x8ADF, offset: 0x8ADF, size: 0x8, addend: 0x0, symName: __ZNSt3__1lsB8ue170006INS_11char_traitsIcEEEERNS_13basic_ostreamIcT_EES6_PKc, symObjAddr: 0x9F8, symBinAddr: 0x1000044E8, symSize: 0x48 }
  - { offsetInCU: 0x8B25, offset: 0x8B25, size: 0x8, addend: 0x0, symName: __ZNSt3__14endlB8ue170006IcNS_11char_traitsIcEEEERNS_13basic_ostreamIT_T0_EES7_, symObjAddr: 0xA6C, symBinAddr: 0x10000455C, symSize: 0xD4 }
  - { offsetInCU: 0x8B65, offset: 0x8B65, size: 0x8, addend: 0x0, symName: __ZNSt3__1neB8ue170006IPNS_4pairIiiEEEEbRKNS_11__wrap_iterIT_EES8_, symObjAddr: 0x1014, symBinAddr: 0x100004B04, symSize: 0x34 }
  - { offsetInCU: 0x8BA8, offset: 0x8BA8, size: 0x8, addend: 0x0, symName: __ZNSt3__1neB8ue170006IPiEEbRKNS_11__wrap_iterIT_EES6_, symObjAddr: 0x15E4, symBinAddr: 0x1000050D4, symSize: 0x34 }
  - { offsetInCU: 0x8C07, offset: 0x8C07, size: 0x8, addend: 0x0, symName: __ZNSt3__19make_pairB8ue170006IRiiEENS_4pairINS_18__unwrap_ref_decayIT_E4typeENS3_IT0_E4typeEEEOS4_OS7_, symObjAddr: 0x3890, symBinAddr: 0x100007380, symSize: 0x284 }
  - { offsetInCU: 0x8C58, offset: 0x8C58, size: 0x8, addend: 0x0, symName: __ZNSt3__17find_ifB8ue170006INS_11__wrap_iterIPNS_4pairIiiEEEE7IsEqualEET_S7_S7_T0_, symObjAddr: 0x3B14, symBinAddr: 0x100007604, symSize: 0x3A8 }
  - { offsetInCU: 0x8CBF, offset: 0x8CBF, size: 0x8, addend: 0x0, symName: __ZNSt3__1eqB8ue170006IPNS_4pairIiiEEEEbRKNS_11__wrap_iterIT_EES8_, symObjAddr: 0x3EF0, symBinAddr: 0x1000079E0, symSize: 0x48 }
  - { offsetInCU: 0x8D02, offset: 0x8D02, size: 0x8, addend: 0x0, symName: __ZNSt3__19make_pairB8ue170006IRiS1_EENS_4pairINS_18__unwrap_ref_decayIT_E4typeENS3_IT0_E4typeEEEOS4_OS7_, symObjAddr: 0x417C, symBinAddr: 0x100007C6C, symSize: 0x284 }
  - { offsetInCU: 0x8D53, offset: 0x8D53, size: 0x8, addend: 0x0, symName: __ZNSt3__111lower_boundB8ue170006INS_11__wrap_iterIPNS_4pairIiiEEEES3_PFbRKS3_S7_EEET_SA_SA_RKT0_T1_, symObjAddr: 0x4BB4, symBinAddr: 0x1000086A4, symSize: 0x4A4 }
  - { offsetInCU: 0x8DE5, offset: 0x8DE5, size: 0x8, addend: 0x0, symName: __ZNSt3__19make_pairB8ue170006IRimEENS_4pairINS_18__unwrap_ref_decayIT_E4typeENS3_IT0_E4typeEEEOS4_OS7_, symObjAddr: 0x52CC, symBinAddr: 0x100008DBC, symSize: 0x20C }
  - { offsetInCU: 0x8EE3, offset: 0x8EE3, size: 0x8, addend: 0x0, symName: __ZNSt3__13minB8ue170006IiEERKT_S3_S3_, symObjAddr: 0x6110, symBinAddr: 0x100009C00, symSize: 0x2C }
  - { offsetInCU: 0x8F26, offset: 0x8F26, size: 0x8, addend: 0x0, symName: __ZNSt3__122__make_exception_guardB8ue170006INS_6vectorIiNS_9allocatorIiEEE16__destroy_vectorEEENS_28__exception_guard_exceptionsIT_EES7_, symObjAddr: 0x78F8, symBinAddr: 0x10000B3E8, symSize: 0x278 }
  - { offsetInCU: 0x8F5F, offset: 0x8F5F, size: 0x8, addend: 0x0, symName: __ZNSt3__119__allocate_at_leastB8ue170006INS_9allocatorIiEEEENS_19__allocation_resultINS_16allocator_traitsIT_E7pointerEEERS5_m, symObjAddr: 0x8DD8, symBinAddr: 0x10000C8C8, symSize: 0x28C }
  - { offsetInCU: 0x8FA4, offset: 0x8FA4, size: 0x8, addend: 0x0, symName: __ZNSt3__13minB8ue170006ImEERKT_S3_S3_, symObjAddr: 0x9188, symBinAddr: 0x10000CC78, symSize: 0x2C }
  - { offsetInCU: 0x91E8, offset: 0x91E8, size: 0x8, addend: 0x0, symName: __ZNSt3__13minB8ue170006ImNS_6__lessIvvEEEERKT_S5_S5_T0_, symObjAddr: 0x9214, symBinAddr: 0x10000CD04, symSize: 0x1E8 }
  - { offsetInCU: 0x92BE, offset: 0x92BE, size: 0x8, addend: 0x0, symName: __ZNSt3__120__throw_length_errorB8ue170006EPKc, symObjAddr: 0x950C, symBinAddr: 0x10000CFFC, symSize: 0x68 }
  - { offsetInCU: 0x92E8, offset: 0x92E8, size: 0x8, addend: 0x0, symName: __ZNSt3__130__libcpp_is_constant_evaluatedB8ue170006Ev, symObjAddr: 0x96F4, symBinAddr: 0x10000D1E4, symSize: 0xC }
  - { offsetInCU: 0x9305, offset: 0x9305, size: 0x8, addend: 0x0, symName: __ZNSt3__117__libcpp_allocateB8ue170006Emm, symObjAddr: 0x9700, symBinAddr: 0x10000D1F0, symSize: 0x28 }
  - { offsetInCU: 0x9342, offset: 0x9342, size: 0x8, addend: 0x0, symName: __ZNSt3__121__libcpp_operator_newB8ue170006IJmEEEPvDpT_, symObjAddr: 0x9728, symBinAddr: 0x10000D218, symSize: 0x24 }
  - { offsetInCU: 0x937B, offset: 0x937B, size: 0x8, addend: 0x0, symName: __ZNSt3__112__to_addressB8ue170006IiEEPT_S2_, symObjAddr: 0x9940, symBinAddr: 0x10000D430, symSize: 0x14 }
  - { offsetInCU: 0x93B0, offset: 0x93B0, size: 0x8, addend: 0x0, symName: __ZNSt3__119__libcpp_deallocateB8ue170006EPvmm, symObjAddr: 0xA710, symBinAddr: 0x10000E200, symSize: 0x30 }
  - { offsetInCU: 0x93F8, offset: 0x93F8, size: 0x8, addend: 0x0, symName: __ZNSt3__127__do_deallocate_handle_sizeB8ue170006IJEEEvPvmDpT_, symObjAddr: 0xA740, symBinAddr: 0x10000E230, symSize: 0x28 }
  - { offsetInCU: 0x9436, offset: 0x9436, size: 0x8, addend: 0x0, symName: __ZNSt3__124__libcpp_operator_deleteB8ue170006IJPvEEEvDpT_, symObjAddr: 0xA768, symBinAddr: 0x10000E258, symSize: 0x24 }
  - { offsetInCU: 0x946B, offset: 0x946B, size: 0x8, addend: 0x0, symName: __ZNSt3__116__pad_and_outputB8ue170006IcNS_11char_traitsIcEEEENS_19ostreambuf_iteratorIT_T0_EES6_PKS4_S8_S8_RNS_8ios_baseES4_, symObjAddr: 0xB194, symBinAddr: 0x10000EC84, symSize: 0x774 }
  - { offsetInCU: 0x9548, offset: 0x9548, size: 0x8, addend: 0x0, symName: __ZNSt3__112__to_addressB8ue170006IKcEEPT_S3_, symObjAddr: 0xC13C, symBinAddr: 0x10000FC2C, symSize: 0x14 }
  - { offsetInCU: 0x95B0, offset: 0x95B0, size: 0x8, addend: 0x0, symName: __ZNSt3__19use_facetB8ue170006INS_5ctypeIcEEEERKT_RKNS_6localeE, symObjAddr: 0xC7F4, symBinAddr: 0x1000102E4, symSize: 0x2C }
  - { offsetInCU: 0x9A7D, offset: 0x9A7D, size: 0x8, addend: 0x0, symName: __ZNSt3__118__constexpr_strlenB8ue170006EPKc, symObjAddr: 0xC978, symBinAddr: 0x100010468, symSize: 0x24 }
  - { offsetInCU: 0x9AA9, offset: 0x9AA9, size: 0x8, addend: 0x0, symName: __ZNSt3__1eqB8ue170006IPiEEbRKNS_11__wrap_iterIT_EES6_, symObjAddr: 0xCEDC, symBinAddr: 0x1000109CC, symSize: 0x48 }
  - { offsetInCU: 0x9AEC, offset: 0x9AEC, size: 0x8, addend: 0x0, symName: __ZNSt3__1miB8ue170006IPKNS_4pairIiiEEPS2_EENS_11__wrap_iterIT_E15difference_typeERKS8_RKNS6_IT0_EE, symObjAddr: 0xD198, symBinAddr: 0x100010C88, symSize: 0x48 }
  - { offsetInCU: 0x9B38, offset: 0x9B38, size: 0x8, addend: 0x0, symName: __ZNSt3__112__to_addressB8ue170006INS_4pairIiiEEEEPT_S4_, symObjAddr: 0xF048, symBinAddr: 0x100012B38, symSize: 0x14 }
  - { offsetInCU: 0x9B6D, offset: 0x9B6D, size: 0x8, addend: 0x0, symName: __ZNSt3__113move_backwardB8ue170006IPNS_4pairIiiEES3_EET0_T_S5_S4_, symObjAddr: 0xF8B0, symBinAddr: 0x1000133A0, symSize: 0x254 }
  - { offsetInCU: 0x9BCA, offset: 0x9BCA, size: 0x8, addend: 0x0, symName: __ZNSt3__115__move_backwardB8ue170006INS_17_ClassicAlgPolicyEPNS_4pairIiiEES4_S4_EENS2_IT0_T2_EES5_T1_S6_, symObjAddr: 0xFB04, symBinAddr: 0x1000135F4, symSize: 0x22C }
  - { offsetInCU: 0x9C39, offset: 0x9C39, size: 0x8, addend: 0x0, symName: __ZNSt3__123__dispatch_copy_or_moveB8ue170006INS_17_ClassicAlgPolicyENS_20__move_backward_loopIS1_EENS_23__move_backward_trivialEPNS_4pairIiiEES7_S7_EENS5_IT2_T4_EES8_T3_S9_, symObjAddr: 0xFD30, symBinAddr: 0x100013820, symSize: 0x22C }
  - { offsetInCU: 0x9CBA, offset: 0x9CBA, size: 0x8, addend: 0x0, symName: __ZNSt3__121__unwrap_and_dispatchB8ue170006INS_10__overloadINS_20__move_backward_loopINS_17_ClassicAlgPolicyEEENS_23__move_backward_trivialEEEPNS_4pairIiiEES9_S9_Li0EEENS7_IT0_T2_EESA_T1_SB_, symObjAddr: 0xFF5C, symBinAddr: 0x100013A4C, symSize: 0x5A4 }
  - { offsetInCU: 0x9D53, offset: 0x9D53, size: 0x8, addend: 0x0, symName: __ZNSt3__114__unwrap_rangeB8ue170006IPNS_4pairIiiEES3_EENS1_IT0_S4_EET_S6_, symObjAddr: 0x10500, symBinAddr: 0x100013FF0, symSize: 0x350 }
  - { offsetInCU: 0x9EA9, offset: 0x9EA9, size: 0x8, addend: 0x0, symName: __ZNSt3__113__unwrap_iterB8ue170006IPNS_4pairIiiEENS_18__unwrap_iter_implIS3_Lb1EEELi0EEEDTclsrT0_8__unwrapclsr3stdE7declvalIT_EEEES7_, symObjAddr: 0x10D40, symBinAddr: 0x100014830, symSize: 0x24 }
  - { offsetInCU: 0x9EED, offset: 0x9EED, size: 0x8, addend: 0x0, symName: __ZNSt3__19make_pairB8ue170006IPNS_4pairIiiEES3_EENS1_INS_18__unwrap_ref_decayIT_E4typeENS4_IT0_E4typeEEEOS5_OS8_, symObjAddr: 0x10D64, symBinAddr: 0x100014854, symSize: 0x20C }
  - { offsetInCU: 0x9F3E, offset: 0x9F3E, size: 0x8, addend: 0x0, symName: __ZNSt3__114__rewrap_rangeB8ue170006IPNS_4pairIiiEES3_EET_S4_T0_, symObjAddr: 0x10F70, symBinAddr: 0x100014A60, symSize: 0x2C }
  - { offsetInCU: 0x9F8A, offset: 0x9F8A, size: 0x8, addend: 0x0, symName: __ZNSt3__113__rewrap_iterB8ue170006IPNS_4pairIiiEES3_NS_18__unwrap_iter_implIS3_Lb1EEEEET_S6_T0_, symObjAddr: 0x10F9C, symBinAddr: 0x100014A8C, symSize: 0x5C }
  - { offsetInCU: 0xA13D, offset: 0xA13D, size: 0x8, addend: 0x0, symName: __ZNSt3__13maxB8ue170006ImEERKT_S3_S3_, symObjAddr: 0x115E8, symBinAddr: 0x1000150D8, symSize: 0x2C }
  - { offsetInCU: 0xA180, offset: 0xA180, size: 0x8, addend: 0x0, symName: __ZNSt3__13maxB8ue170006ImNS_6__lessIvvEEEERKT_S5_S5_T0_, symObjAddr: 0x116AC, symBinAddr: 0x10001519C, symSize: 0x1E8 }
  - { offsetInCU: 0xA1E0, offset: 0xA1E0, size: 0x8, addend: 0x0, symName: __ZNSt3__119__allocate_at_leastB8ue170006INS_9allocatorINS_4pairIiiEEEEEENS_19__allocation_resultINS_16allocator_traitsIT_E7pointerEEERS7_m, symObjAddr: 0x11DF0, symBinAddr: 0x1000158E0, symSize: 0x28C }
  - { offsetInCU: 0xA225, offset: 0xA225, size: 0x8, addend: 0x0, symName: __ZNSt3__14moveB8ue170006IPNS_4pairIiiEES3_EET0_T_S5_S4_, symObjAddr: 0x1231C, symBinAddr: 0x100015E0C, symSize: 0x254 }
  - { offsetInCU: 0xA282, offset: 0xA282, size: 0x8, addend: 0x0, symName: __ZNSt3__14swapB8ue170006IPNS_4pairIiiEEEEvRT_S5_, symObjAddr: 0x12978, symBinAddr: 0x100016468, symSize: 0x134 }
  - { offsetInCU: 0xA2D3, offset: 0xA2D3, size: 0x8, addend: 0x0, symName: __ZNSt3__16__moveB8ue170006INS_17_ClassicAlgPolicyEPNS_4pairIiiEES4_S4_EENS2_IT0_T2_EES5_T1_S6_, symObjAddr: 0x12AAC, symBinAddr: 0x10001659C, symSize: 0x22C }
  - { offsetInCU: 0xA342, offset: 0xA342, size: 0x8, addend: 0x0, symName: __ZNSt3__123__dispatch_copy_or_moveB8ue170006INS_17_ClassicAlgPolicyENS_11__move_loopIS1_EENS_14__move_trivialEPNS_4pairIiiEES7_S7_EENS5_IT2_T4_EES8_T3_S9_, symObjAddr: 0x12CD8, symBinAddr: 0x1000167C8, symSize: 0x22C }
  - { offsetInCU: 0xA3C3, offset: 0xA3C3, size: 0x8, addend: 0x0, symName: __ZNSt3__121__unwrap_and_dispatchB8ue170006INS_10__overloadINS_11__move_loopINS_17_ClassicAlgPolicyEEENS_14__move_trivialEEEPNS_4pairIiiEES9_S9_Li0EEENS7_IT0_T2_EESA_T1_SB_, symObjAddr: 0x12F04, symBinAddr: 0x1000169F4, symSize: 0x5A4 }
  - { offsetInCU: 0xA4ED, offset: 0xA4ED, size: 0x8, addend: 0x0, symName: __ZNSt3__18distanceB8ue170006INS_13move_iteratorIPNS_4pairIiiEEEEEENS_15iterator_traitsIT_E15difference_typeES7_S7_, symObjAddr: 0x13D68, symBinAddr: 0x100017858, symSize: 0x350 }
  - { offsetInCU: 0xA538, offset: 0xA538, size: 0x8, addend: 0x0, symName: __ZNSt3__110__distanceB8ue170006INS_13move_iteratorIPNS_4pairIiiEEEEEENS_15iterator_traitsIT_E15difference_typeES7_S7_NS_26random_access_iterator_tagE, symObjAddr: 0x1444C, symBinAddr: 0x100017F3C, symSize: 0x274 }
  - { offsetInCU: 0xA58E, offset: 0xA58E, size: 0x8, addend: 0x0, symName: __ZNSt3__1miB8ue170006IPNS_4pairIiiEES3_EENS_13move_iteratorIT_E15difference_typeERKS6_RKNS4_IT0_EE, symObjAddr: 0x146C0, symBinAddr: 0x1000181B0, symSize: 0x48 }
  - { offsetInCU: 0xA5DD, offset: 0xA5DD, size: 0x8, addend: 0x0, symName: __ZNSt3__142__uninitialized_allocator_move_if_noexceptB8ue170006INS_9allocatorINS_4pairIiiEEEENS_16reverse_iteratorIPS3_EES7_S7_EET2_RT_T0_T1_S8_, symObjAddr: 0x148B8, symBinAddr: 0x1000183A8, symSize: 0x558 }
  - { offsetInCU: 0xA692, offset: 0xA692, size: 0x8, addend: 0x0, symName: __ZNSt3__142__uninitialized_allocator_move_if_noexceptB8ue170006INS_9allocatorINS_4pairIiiEEEEPS3_S5_S5_EET2_RT_T0_T1_S6_, symObjAddr: 0x14EA8, symBinAddr: 0x100018998, symSize: 0x534 }
  - { offsetInCU: 0xA73E, offset: 0xA73E, size: 0x8, addend: 0x0, symName: __ZNSt3__122__make_exception_guardB8ue170006INS_29_AllocatorDestroyRangeReverseINS_9allocatorINS_4pairIiiEEEENS_16reverse_iteratorIPS4_EEEEEENS_28__exception_guard_exceptionsIT_EESB_, symObjAddr: 0x154B0, symBinAddr: 0x100018FA0, symSize: 0x1F8 }
  - { offsetInCU: 0xA775, offset: 0xA775, size: 0x8, addend: 0x0, symName: __ZNSt3__1neB8ue170006IPNS_4pairIiiEES3_EEbRKNS_16reverse_iteratorIT_EERKNS4_IT0_EE, symObjAddr: 0x156EC, symBinAddr: 0x1000191DC, symSize: 0x48 }
  - { offsetInCU: 0xA7C1, offset: 0xA7C1, size: 0x8, addend: 0x0, symName: __ZNSt3__112__to_addressB8ue170006INS_16reverse_iteratorIPNS_4pairIiiEEEEvEEu7__decayIDTclsr19__to_address_helperIT_EE6__callclsr3stdE7declvalIRKS6_EEEEES8_, symObjAddr: 0x15734, symBinAddr: 0x100019224, symSize: 0x24 }
  - { offsetInCU: 0xA820, offset: 0xA820, size: 0x8, addend: 0x0, symName: __ZNSt3__119__allocator_destroyB8ue170006INS_9allocatorINS_4pairIiiEEEENS_16reverse_iteratorINS5_IPS3_EEEES8_EEvRT_T0_T1_, symObjAddr: 0x15F98, symBinAddr: 0x100019A88, symSize: 0x70 }
  - { offsetInCU: 0xA885, offset: 0xA885, size: 0x8, addend: 0x0, symName: __ZNSt3__1neB8ue170006INS_16reverse_iteratorIPNS_4pairIiiEEEES5_EEbRKNS1_IT_EERKNS1_IT0_EE, symObjAddr: 0x16250, symBinAddr: 0x100019D40, symSize: 0x2CC }
  - { offsetInCU: 0xA8D3, offset: 0xA8D3, size: 0x8, addend: 0x0, symName: __ZNSt3__112__to_addressB8ue170006INS_16reverse_iteratorINS1_IPNS_4pairIiiEEEEEEvEEu7__decayIDTclsr19__to_address_helperIT_EE6__callclsr3stdE7declvalIRKS7_EEEEES9_, symObjAddr: 0x16548, symBinAddr: 0x10001A038, symSize: 0x24 }
  - { offsetInCU: 0xA932, offset: 0xA932, size: 0x8, addend: 0x0, symName: __ZNSt3__122__make_exception_guardB8ue170006INS_29_AllocatorDestroyRangeReverseINS_9allocatorINS_4pairIiiEEEEPS4_EEEENS_28__exception_guard_exceptionsIT_EES9_, symObjAddr: 0x16D74, symBinAddr: 0x10001A864, symSize: 0x1F8 }
  - { offsetInCU: 0xA969, offset: 0xA969, size: 0x8, addend: 0x0, symName: __ZNSt3__119__allocator_destroyB8ue170006INS_9allocatorINS_4pairIiiEEEENS_16reverse_iteratorIPS3_EES7_EEvRT_T0_T1_, symObjAddr: 0x17688, symBinAddr: 0x10001B178, symSize: 0x2B8 }
  - { offsetInCU: 0xA9D5, offset: 0xA9D5, size: 0x8, addend: 0x0, symName: __ZNSt3__113__lower_boundB8ue170006INS_17_ClassicAlgPolicyENS_11__wrap_iterIPNS_4pairIiiEEEES6_S4_NS_10__identityEPFbRKS4_S9_EEET0_SC_T1_RKT2_RT4_RT3_, symObjAddr: 0x17F2C, symBinAddr: 0x10001BA1C, symSize: 0x4CC }
  - { offsetInCU: 0xAAB9, offset: 0xAAB9, size: 0x8, addend: 0x0, symName: __ZNSt3__115__half_positiveB8ue170006IlEENS_9enable_ifIXsr11is_integralIT_EE5valueES2_E4typeES2_, symObjAddr: 0x18748, symBinAddr: 0x10001C238, symSize: 0x1C }
  - { offsetInCU: 0xAAEE, offset: 0xAAEE, size: 0x8, addend: 0x0, symName: __ZNSt3__18__invokeB8ue170006IRPFbRKNS_4pairIiiEES4_EJRS2_S4_EEEDTclclsr3stdE7declvalIT_EEspclsr3stdE7declvalIT0_EEEEOS9_DpOSA_, symObjAddr: 0x18790, symBinAddr: 0x10001C280, symSize: 0x78 }
  - { offsetInCU: 0xAB53, offset: 0xAB53, size: 0x8, addend: 0x0, symName: __ZNSt3__18__invokeB8ue170006IRNS_10__identityEJRNS_4pairIiiEEEEEDTclclsr3stdE7declvalIT_EEspclsr3stdE7declvalIT0_EEEEOS6_DpOS7_, symObjAddr: 0x18808, symBinAddr: 0x10001C2F8, symSize: 0x2C }
  - { offsetInCU: 0xABA4, offset: 0xABA4, size: 0x8, addend: 0x0, symName: __ZNSt3__18distanceB8ue170006INS_11__wrap_iterIPNS_4pairIiiEEEEEENS_15iterator_traitsIT_E15difference_typeES7_S7_, symObjAddr: 0x18834, symBinAddr: 0x10001C324, symSize: 0x350 }
  - { offsetInCU: 0xABEF, offset: 0xABEF, size: 0x8, addend: 0x0, symName: __ZNSt3__110__distanceB8ue170006INS_11__wrap_iterIPNS_4pairIiiEEEEEENS_15iterator_traitsIT_E15difference_typeES7_S7_NS_26random_access_iterator_tagE, symObjAddr: 0x18B84, symBinAddr: 0x10001C674, symSize: 0x274 }
  - { offsetInCU: 0xAC45, offset: 0xAC45, size: 0x8, addend: 0x0, symName: __ZNSt3__1miB8ue170006IPNS_4pairIiiEES3_EENS_11__wrap_iterIT_E15difference_typeERKS6_RKNS4_IT0_EE, symObjAddr: 0x18DF8, symBinAddr: 0x10001C8E8, symSize: 0x48 }
  - { offsetInCU: 0xAC91, offset: 0xAC91, size: 0x8, addend: 0x0, symName: __ZNSt3__121__convert_to_integralB8ue170006El, symObjAddr: 0x18E78, symBinAddr: 0x10001C968, symSize: 0x14 }
  - { offsetInCU: 0xACBD, offset: 0xACBD, size: 0x8, addend: 0x0, symName: __ZNSt3__19__advanceB8ue170006INS_11__wrap_iterIPNS_4pairIiiEEEEEEvRT_NS_15iterator_traitsIS6_E15difference_typeENS_26random_access_iterator_tagE, symObjAddr: 0x18E8C, symBinAddr: 0x10001C97C, symSize: 0x2C }
  - { offsetInCU: 0xAD66, offset: 0xAD66, size: 0x8, addend: 0x0, symName: __ZNSt3__122__make_exception_guardB8ue170006INS_6vectorINS_4pairIiiEENS_9allocatorIS3_EEE16__destroy_vectorEEENS_28__exception_guard_exceptionsIT_EES9_, symObjAddr: 0x1A5E8, symBinAddr: 0x10001E0D8, symSize: 0x278 }
  - { offsetInCU: 0xAD9F, offset: 0xAD9F, size: 0x8, addend: 0x0, symName: __ZNSt3__13minB8ue170006IiNS_6__lessIvvEEEERKT_S5_S5_T0_, symObjAddr: 0x1BEC4, symBinAddr: 0x10001F9B4, symSize: 0x1E8 }
  - { offsetInCU: 0xADFF, offset: 0xADFF, size: 0x8, addend: 0x0, symName: __ZNSt3__142__uninitialized_allocator_move_if_noexceptB8ue170006INS_9allocatorIiEENS_16reverse_iteratorIPiEES5_ivEET1_RT_T0_S9_S6_, symObjAddr: 0x1DAB4, symBinAddr: 0x1000215A4, symSize: 0x550 }
  - { offsetInCU: 0xAE89, offset: 0xAE89, size: 0x8, addend: 0x0, symName: __ZNSt3__14swapB8ue170006IPiEEvRT_S3_, symObjAddr: 0x1E09C, symBinAddr: 0x100021B8C, symSize: 0x134 }
  - { offsetInCU: 0xAEDA, offset: 0xAEDA, size: 0x8, addend: 0x0, symName: __ZNSt3__1neB8ue170006IPiS1_EEbRKNS_16reverse_iteratorIT_EERKNS2_IT0_EE, symObjAddr: 0x1E1D0, symBinAddr: 0x100021CC0, symSize: 0x48 }
  - { offsetInCU: 0xAF4B, offset: 0xAF4B, size: 0x8, addend: 0x0, symName: __ZNSt3__114__construct_atB8ue170006IiJiEPiEEPT_S3_DpOT0_, symObjAddr: 0x1E218, symBinAddr: 0x100021D08, symSize: 0x108 }
  - { offsetInCU: 0xAFBB, offset: 0xAFBB, size: 0x8, addend: 0x0, symName: __ZNSt3__112__to_addressB8ue170006INS_16reverse_iteratorIPiEEvEEu7__decayIDTclsr19__to_address_helperIT_EE6__callclsr3stdE7declvalIRKS4_EEEEES6_, symObjAddr: 0x1E320, symBinAddr: 0x100021E10, symSize: 0x24 }
  - { offsetInCU: 0xAFF1, offset: 0xAFF1, size: 0x8, addend: 0x0, symName: __ZNSt3__14moveB8ue170006INS_16reverse_iteratorIPiEES3_EET0_T_S5_S4_, symObjAddr: 0x1E424, symBinAddr: 0x100021F14, symSize: 0x4B0 }
  - { offsetInCU: 0xB081, offset: 0xB081, size: 0x8, addend: 0x0, symName: __ZNSt3__16__moveB8ue170006INS_17_ClassicAlgPolicyENS_16reverse_iteratorIPiEES4_S4_EENS_4pairIT0_T2_EES6_T1_S7_, symObjAddr: 0x1E950, symBinAddr: 0x100022440, symSize: 0x424 }
  - { offsetInCU: 0xB0F9, offset: 0xB0F9, size: 0x8, addend: 0x0, symName: __ZNSt3__123__dispatch_copy_or_moveB8ue170006INS_17_ClassicAlgPolicyENS_11__move_loopIS1_EENS_14__move_trivialENS_16reverse_iteratorIPiEES7_S7_EENS_4pairIT2_T4_EES9_T3_SA_, symObjAddr: 0x1ED74, symBinAddr: 0x100022864, symSize: 0x424 }
  - { offsetInCU: 0xB183, offset: 0xB183, size: 0x8, addend: 0x0, symName: __ZNSt3__121__unwrap_and_dispatchB8ue170006INS_10__overloadINS_11__move_loopINS_17_ClassicAlgPolicyEEENS_14__move_trivialEEENS_16reverse_iteratorIPiEES9_S9_Li0EEENS_4pairIT0_T2_EESB_T1_SC_, symObjAddr: 0x1F198, symBinAddr: 0x100022C88, symSize: 0x880 }
  - { offsetInCU: 0xB227, offset: 0xB227, size: 0x8, addend: 0x0, symName: __ZNSt3__114__unwrap_rangeB8ue170006INS_16reverse_iteratorIPiEES3_EENS_4pairIT0_S5_EET_S7_, symObjAddr: 0x1FA18, symBinAddr: 0x100023508, symSize: 0x448 }
  - { offsetInCU: 0xB328, offset: 0xB328, size: 0x8, addend: 0x0, symName: __ZNSt3__113__unwrap_iterB8ue170006INS_16reverse_iteratorIPiEENS_18__unwrap_iter_implIS3_Lb0EEELi0EEEDTclsrT0_8__unwrapclsr3stdE7declvalIT_EEEES7_, symObjAddr: 0x20258, symBinAddr: 0x100023D48, symSize: 0x2EC }
  - { offsetInCU: 0xB370, offset: 0xB370, size: 0x8, addend: 0x0, symName: __ZNSt3__19make_pairB8ue170006INS_16reverse_iteratorIPiEES3_EENS_4pairINS_18__unwrap_ref_decayIT_E4typeENS5_IT0_E4typeEEEOS6_OS9_, symObjAddr: 0x20544, symBinAddr: 0x100024034, symSize: 0x38 }
  - { offsetInCU: 0xB3BF, offset: 0xB3BF, size: 0x8, addend: 0x0, symName: __ZNSt3__114__rewrap_rangeB8ue170006INS_16reverse_iteratorIPiEES3_EET_S4_T0_, symObjAddr: 0x2057C, symBinAddr: 0x10002406C, symSize: 0x3D4 }
  - { offsetInCU: 0xB413, offset: 0xB413, size: 0x8, addend: 0x0, symName: __ZNSt3__113__rewrap_iterB8ue170006INS_16reverse_iteratorIPiEES3_NS_18__unwrap_iter_implIS3_Lb0EEEEET_S6_T0_, symObjAddr: 0x20950, symBinAddr: 0x100024440, symSize: 0x3FC }
  - { offsetInCU: 0xB4DC, offset: 0xB4DC, size: 0x8, addend: 0x0, symName: __ZNSt3__18distanceB8ue170006IPNS_4pairIiiEEEENS_15iterator_traitsIT_E15difference_typeES5_S5_, symObjAddr: 0x21C44, symBinAddr: 0x100025734, symSize: 0x2C }
  - { offsetInCU: 0xB51F, offset: 0xB51F, size: 0x8, addend: 0x0, symName: __ZNSt3__14nextB8ue170006IPNS_4pairIiiEEEENS_9enable_ifIXsr29__has_input_iterator_categoryIT_EE5valueES5_E4typeES5_NS_15iterator_traitsIS5_E15difference_typeE, symObjAddr: 0x21C70, symBinAddr: 0x100025760, symSize: 0x238 }
  - { offsetInCU: 0xB567, offset: 0xB567, size: 0x8, addend: 0x0, symName: __ZNSt3__14copyB8ue170006IPNS_4pairIiiEES3_EET0_T_S5_S4_, symObjAddr: 0x21EA8, symBinAddr: 0x100025998, symSize: 0x254 }
  - { offsetInCU: 0xB5C4, offset: 0xB5C4, size: 0x8, addend: 0x0, symName: __ZNSt3__16__copyB8ue170006INS_17_ClassicAlgPolicyEPNS_4pairIiiEES4_S4_EENS2_IT0_T2_EES5_T1_S6_, symObjAddr: 0x22490, symBinAddr: 0x100025F80, symSize: 0x22C }
  - { offsetInCU: 0xB633, offset: 0xB633, size: 0x8, addend: 0x0, symName: __ZNSt3__19__advanceB8ue170006IPNS_4pairIiiEEEEvRT_NS_15iterator_traitsIS4_E15difference_typeENS_26random_access_iterator_tagE, symObjAddr: 0x228D4, symBinAddr: 0x1000263C4, symSize: 0x78 }
  - { offsetInCU: 0xB67C, offset: 0xB67C, size: 0x8, addend: 0x0, symName: __ZNSt3__130__uninitialized_allocator_copyB8ue170006INS_9allocatorINS_4pairIiiEEEEPS3_S5_S5_EET2_RT_T0_T1_S6_, symObjAddr: 0x2294C, symBinAddr: 0x10002643C, symSize: 0x2DC }
  - { offsetInCU: 0xB722, offset: 0xB722, size: 0x8, addend: 0x0, symName: __ZNSt3__135__uninitialized_allocator_copy_implB8ue170006INS_9allocatorINS_4pairIiiEEEEPS3_S5_S5_EET2_RT_T0_T1_S6_, symObjAddr: 0x22C28, symBinAddr: 0x100026718, symSize: 0x534 }
  - { offsetInCU: 0xB7CE, offset: 0xB7CE, size: 0x8, addend: 0x0, symName: __ZNSt3__123__dispatch_copy_or_moveB8ue170006INS_17_ClassicAlgPolicyENS_11__copy_loopIS1_EENS_14__copy_trivialEPNS_4pairIiiEES7_S7_EENS5_IT2_T4_EES8_T3_S9_, symObjAddr: 0x231C4, symBinAddr: 0x100026CB4, symSize: 0x22C }
  - { offsetInCU: 0xB84F, offset: 0xB84F, size: 0x8, addend: 0x0, symName: __ZNSt3__121__unwrap_and_dispatchB8ue170006INS_10__overloadINS_11__copy_loopINS_17_ClassicAlgPolicyEEENS_14__copy_trivialEEEPNS_4pairIiiEES9_S9_Li0EEENS7_IT0_T2_EESA_T1_SB_, symObjAddr: 0x233F0, symBinAddr: 0x100026EE0, symSize: 0x5A4 }
  - { offsetInCU: 0xB93A, offset: 0xB93A, size: 0x8, addend: 0x0, symName: __ZNSt3__110__distanceB8ue170006IPNS_4pairIiiEEEENS_15iterator_traitsIT_E15difference_typeES5_S5_NS_26random_access_iterator_tagE, symObjAddr: 0x23E30, symBinAddr: 0x100027920, symSize: 0x28 }
  - { offsetInCU: 0xBC67, offset: 0xBC67, size: 0x8, addend: 0x0, symName: __ZSt28__throw_bad_array_new_lengthB8ue170006v, symObjAddr: 0x96BC, symBinAddr: 0x10000D1AC, symSize: 0x38 }
  - { offsetInCU: 0xC41E, offset: 0xC41E, size: 0x8, addend: 0x0, symName: __ZNSt3__16vectorINS_4pairIiiEENS_9allocatorIS2_EEE26__swap_out_circular_bufferERNS_14__split_bufferIS2_RS4_EEPS2_, symObjAddr: 0xE83C, symBinAddr: 0x10001232C, symSize: 0x678 }
  - { offsetInCU: 0xC519, offset: 0xC519, size: 0x8, addend: 0x0, symName: __ZNSt3__16vectorIiNS_9allocatorIiEEE26__swap_out_circular_bufferERNS_14__split_bufferIiRS2_EE, symObjAddr: 0x1CE0C, symBinAddr: 0x1000208FC, symSize: 0x56C }
  - { offsetInCU: 0xE89A, offset: 0xE89A, size: 0x8, addend: 0x0, symName: __Z13jacobsthalVeci, symObjAddr: 0x0, symBinAddr: 0x100003AF0, symSize: 0x330 }
  - { offsetInCU: 0xE8F2, offset: 0xE8F2, size: 0x8, addend: 0x0, symName: __ZNSt3__16vectorIiNS_9allocatorIiEEEC1Em, symObjAddr: 0x330, symBinAddr: 0x100003E20, symSize: 0x34 }
  - { offsetInCU: 0xE92D, offset: 0xE92D, size: 0x8, addend: 0x0, symName: __ZNSt3__16vectorIiNS_9allocatorIiEEEixB8ue170006Em, symObjAddr: 0x364, symBinAddr: 0x100003E54, symSize: 0x6C }
  - { offsetInCU: 0xE964, offset: 0xE964, size: 0x8, addend: 0x0, symName: __ZNSt3__16vectorIiNS_9allocatorIiEEED1B8ue170006Ev, symObjAddr: 0x3D0, symBinAddr: 0x100003EC0, symSize: 0x2C }
  - { offsetInCU: 0xE98D, offset: 0xE98D, size: 0x8, addend: 0x0, symName: __Z9testPrintRNSt3__16vectorINS_4pairIiiEENS_9allocatorIS2_EEEERNS0_IiNS3_IiEEEE, symObjAddr: 0x3FC, symBinAddr: 0x100003EEC, symSize: 0x5FC }
  - { offsetInCU: 0xEA7D, offset: 0xEA7D, size: 0x8, addend: 0x0, symName: __ZNSt3__113basic_ostreamIcNS_11char_traitsIcEEElsB8ue170006EPFRS3_S4_E, symObjAddr: 0xA40, symBinAddr: 0x100004530, symSize: 0x2C }
  - { offsetInCU: 0xEAB1, offset: 0xEAB1, size: 0x8, addend: 0x0, symName: __ZNSt3__16vectorINS_4pairIiiEENS_9allocatorIS2_EEE5beginB8ue170006Ev, symObjAddr: 0xB40, symBinAddr: 0x100004630, symSize: 0x268 }
  - { offsetInCU: 0xEADA, offset: 0xEADA, size: 0x8, addend: 0x0, symName: __ZNSt3__16vectorINS_4pairIiiEENS_9allocatorIS2_EEE3endB8ue170006Ev, symObjAddr: 0xDA8, symBinAddr: 0x100004898, symSize: 0x26C }
  - { offsetInCU: 0xEB03, offset: 0xEB03, size: 0x8, addend: 0x0, symName: __ZNKSt3__111__wrap_iterIPNS_4pairIiiEEEdeB8ue170006Ev, symObjAddr: 0x1048, symBinAddr: 0x100004B38, symSize: 0x60 }
  - { offsetInCU: 0xEB29, offset: 0xEB29, size: 0x8, addend: 0x0, symName: __ZNSt3__111__wrap_iterIPNS_4pairIiiEEEppB8ue170006Ev, symObjAddr: 0x10A8, symBinAddr: 0x100004B98, symSize: 0x68 }
  - { offsetInCU: 0xEB4F, offset: 0xEB4F, size: 0x8, addend: 0x0, symName: __ZNSt3__16vectorIiNS_9allocatorIiEEE5beginB8ue170006Ev, symObjAddr: 0x1110, symBinAddr: 0x100004C00, symSize: 0x268 }
  - { offsetInCU: 0xEB78, offset: 0xEB78, size: 0x8, addend: 0x0, symName: __ZNSt3__16vectorIiNS_9allocatorIiEEE3endB8ue170006Ev, symObjAddr: 0x1378, symBinAddr: 0x100004E68, symSize: 0x26C }
  - { offsetInCU: 0xEBA1, offset: 0xEBA1, size: 0x8, addend: 0x0, symName: __ZNKSt3__111__wrap_iterIPiEdeB8ue170006Ev, symObjAddr: 0x1618, symBinAddr: 0x100005108, symSize: 0x60 }
  - { offsetInCU: 0xEBC7, offset: 0xEBC7, size: 0x8, addend: 0x0, symName: __ZNSt3__111__wrap_iterIPiEppB8ue170006Ev, symObjAddr: 0x1678, symBinAddr: 0x100005168, symSize: 0x68 }
  - { offsetInCU: 0xEBEC, offset: 0xEBEC, size: 0x8, addend: 0x0, symName: __Z12comparePairsRKNSt3__14pairIiiEES3_, symObjAddr: 0x16E0, symBinAddr: 0x1000051D0, symSize: 0x108 }
  - { offsetInCU: 0xEC26, offset: 0xEC26, size: 0x8, addend: 0x0, symName: __Z6insertRNSt3__16vectorINS_4pairIiiEENS_9allocatorIS2_EEEERNS0_IiNS3_IiEEEE, symObjAddr: 0x17E8, symBinAddr: 0x1000052D8, symSize: 0x17F0 }
  - { offsetInCU: 0xED1F, offset: 0xED1F, size: 0x8, addend: 0x0, symName: __ZNKSt3__16vectorIiNS_9allocatorIiEEE4sizeB8ue170006Ev, symObjAddr: 0x2FD8, symBinAddr: 0x100006AC8, symSize: 0xB0 }
  - { offsetInCU: 0xED45, offset: 0xED45, size: 0x8, addend: 0x0, symName: __ZNKSt3__16vectorINS_4pairIiiEENS_9allocatorIS2_EEE4sizeB8ue170006Ev, symObjAddr: 0x3088, symBinAddr: 0x100006B78, symSize: 0xB0 }
  - { offsetInCU: 0xED6B, offset: 0xED6B, size: 0x8, addend: 0x0, symName: __ZNSt3__16vectorINS_4pairIiiEENS_9allocatorIS2_EEE6insertENS_11__wrap_iterIPKS2_EEOS2_, symObjAddr: 0x3138, symBinAddr: 0x100006C28, symSize: 0x71C }
  - { offsetInCU: 0xEDFB, offset: 0xEDFB, size: 0x8, addend: 0x0, symName: __ZNSt3__111__wrap_iterIPKNS_4pairIiiEEEC1B8ue170006IPS2_EERKNS0_IT_EEPNS_9enable_ifIXsr14is_convertibleIS8_S4_EE5valueEvE4typeE, symObjAddr: 0x3854, symBinAddr: 0x100007344, symSize: 0x3C }
  - { offsetInCU: 0xEE46, offset: 0xEE46, size: 0x8, addend: 0x0, symName: __ZN7IsEqualC1Ei, symObjAddr: 0x3EBC, symBinAddr: 0x1000079AC, symSize: 0x34 }
  - { offsetInCU: 0xEE7E, offset: 0xEE7E, size: 0x8, addend: 0x0, symName: __ZNKSt3__111__wrap_iterIPNS_4pairIiiEEEmiB8ue170006El, symObjAddr: 0x3F38, symBinAddr: 0x100007A28, symSize: 0x244 }
  - { offsetInCU: 0xEEB4, offset: 0xEEB4, size: 0x8, addend: 0x0, symName: __ZNSt3__16vectorINS_4pairIiiEENS_9allocatorIS2_EEE6insertENS_11__wrap_iterIPKS2_EERS7_, symObjAddr: 0x4400, symBinAddr: 0x100007EF0, symSize: 0x7B4 }
  - { offsetInCU: 0xEF58, offset: 0xEF58, size: 0x8, addend: 0x0, symName: __ZNKSt3__111__wrap_iterIPNS_4pairIiiEEEplB8ue170006El, symObjAddr: 0x5058, symBinAddr: 0x100008B48, symSize: 0x20C }
  - { offsetInCU: 0xEFA0, offset: 0xEFA0, size: 0x8, addend: 0x0, symName: __ZNSt3__16vectorIiNS_9allocatorIiEEE4backB8ue170006Ev, symObjAddr: 0x5264, symBinAddr: 0x100008D54, symSize: 0x68 }
  - { offsetInCU: 0xEFE9, offset: 0xEFE9, size: 0x8, addend: 0x0, symName: __ZNSt3__14pairIiiEC1B8ue170006IimEERKNS0_IT_T0_EE, symObjAddr: 0x54D8, symBinAddr: 0x100008FC8, symSize: 0x34 }
  - { offsetInCU: 0xF032, offset: 0xF032, size: 0x8, addend: 0x0, symName: __Z5mergeRNSt3__16vectorINS_4pairIiiEENS_9allocatorIS2_EEEEi, symObjAddr: 0x5518, symBinAddr: 0x100009008, symSize: 0x984 }
  - { offsetInCU: 0xF0D5, offset: 0xF0D5, size: 0x8, addend: 0x0, symName: __ZNSt3__16vectorINS_4pairIiiEENS_9allocatorIS2_EEEC1Em, symObjAddr: 0x5E9C, symBinAddr: 0x10000998C, symSize: 0x34 }
  - { offsetInCU: 0xF110, offset: 0xF110, size: 0x8, addend: 0x0, symName: __ZNSt3__16vectorINS_4pairIiiEENS_9allocatorIS2_EEEixB8ue170006Em, symObjAddr: 0x5ED0, symBinAddr: 0x1000099C0, symSize: 0x6C }
  - { offsetInCU: 0xF147, offset: 0xF147, size: 0x8, addend: 0x0, symName: __ZNSt3__14pairIiiEaSB8ue170006ERKS1_, symObjAddr: 0x5F3C, symBinAddr: 0x100009A2C, symSize: 0x1D4 }
  - { offsetInCU: 0xF17B, offset: 0xF17B, size: 0x8, addend: 0x0, symName: __ZNSt3__16vectorIiNS_9allocatorIiEEE9push_backB8ue170006ERKi, symObjAddr: 0x613C, symBinAddr: 0x100009C2C, symSize: 0xE0 }
  - { offsetInCU: 0xF1B2, offset: 0xF1B2, size: 0x8, addend: 0x0, symName: __ZNSt3__16vectorINS_4pairIiiEENS_9allocatorIS2_EEE4backB8ue170006Ev, symObjAddr: 0x621C, symBinAddr: 0x100009D0C, symSize: 0x68 }
  - { offsetInCU: 0xF1D8, offset: 0xF1D8, size: 0x8, addend: 0x0, symName: __ZNSt3__16vectorINS_4pairIiiEENS_9allocatorIS2_EEEaSB8ue170006ERKS5_, symObjAddr: 0x6284, symBinAddr: 0x100009D74, symSize: 0xEC }
  - { offsetInCU: 0xF20F, offset: 0xF20F, size: 0x8, addend: 0x0, symName: __ZNSt3__16vectorINS_4pairIiiEENS_9allocatorIS2_EEED1B8ue170006Ev, symObjAddr: 0x6370, symBinAddr: 0x100009E60, symSize: 0x2C }
  - { offsetInCU: 0xF238, offset: 0xF238, size: 0x8, addend: 0x0, symName: __Z4sortRNSt3__16vectorIiNS_9allocatorIiEEEE, symObjAddr: 0x639C, symBinAddr: 0x100009E8C, symSize: 0x8B4 }
  - { offsetInCU: 0xF2E1, offset: 0xF2E1, size: 0x8, addend: 0x0, symName: _main, symObjAddr: 0x6C50, symBinAddr: 0x10000A740, symSize: 0x6FC }
  - { offsetInCU: 0xF393, offset: 0xF393, size: 0x8, addend: 0x0, symName: __ZNSt3__112basic_stringIcNS_11char_traitsIcEENS_9allocatorIcEEEC1B8ue170006ILi0EEEPKc, symObjAddr: 0x734C, symBinAddr: 0x10000AE3C, symSize: 0x34 }
  - { offsetInCU: 0xF3D2, offset: 0xF3D2, size: 0x8, addend: 0x0, symName: __ZN7IsEqualC2Ei, symObjAddr: 0x7380, symBinAddr: 0x10000AE70, symSize: 0x98 }
  - { offsetInCU: 0xF40A, offset: 0xF40A, size: 0x8, addend: 0x0, symName: __ZNSt3__16vectorIiNS_9allocatorIiEEEC2Em, symObjAddr: 0x7418, symBinAddr: 0x10000AF08, symSize: 0x4A4 }
  - { offsetInCU: 0xF46A, offset: 0xF46A, size: 0x8, addend: 0x0, symName: __ZNSt3__117__compressed_pairIPiNS_9allocatorIiEEEC1B8ue170006IDnNS_18__default_init_tagEEEOT_OT0_, symObjAddr: 0x78BC, symBinAddr: 0x10000B3AC, symSize: 0x3C }
  - { offsetInCU: 0xF4C2, offset: 0xF4C2, size: 0x8, addend: 0x0, symName: __ZNSt3__16vectorIiNS_9allocatorIiEEE16__destroy_vectorC1B8ue170006ERS3_, symObjAddr: 0x7B70, symBinAddr: 0x10000B660, symSize: 0x34 }
  - { offsetInCU: 0xF4FB, offset: 0xF4FB, size: 0x8, addend: 0x0, symName: __ZNSt3__16vectorIiNS_9allocatorIiEEE11__vallocateB8ue170006Em, symObjAddr: 0x7BA4, symBinAddr: 0x10000B694, symSize: 0x420 }
  - { offsetInCU: 0xF545, offset: 0xF545, size: 0x8, addend: 0x0, symName: __ZNSt3__16vectorIiNS_9allocatorIiEEE18__construct_at_endEm, symObjAddr: 0x7FC4, symBinAddr: 0x10000BAB4, symSize: 0x3F8 }
  - { offsetInCU: 0xF5BF, offset: 0xF5BF, size: 0x8, addend: 0x0, symName: __ZNSt3__128__exception_guard_exceptionsINS_6vectorIiNS_9allocatorIiEEE16__destroy_vectorEE10__completeB8ue170006Ev, symObjAddr: 0x83BC, symBinAddr: 0x10000BEAC, symSize: 0x8C }
  - { offsetInCU: 0xF5E5, offset: 0xF5E5, size: 0x8, addend: 0x0, symName: __ZNSt3__128__exception_guard_exceptionsINS_6vectorIiNS_9allocatorIiEEE16__destroy_vectorEED1B8ue170006Ev, symObjAddr: 0x8448, symBinAddr: 0x10000BF38, symSize: 0x2C }
  - { offsetInCU: 0xF60F, offset: 0xF60F, size: 0x8, addend: 0x0, symName: __ZNSt3__117__compressed_pairIPiNS_9allocatorIiEEEC2B8ue170006IDnNS_18__default_init_tagEEEOT_OT0_, symObjAddr: 0x8474, symBinAddr: 0x10000BF64, symSize: 0x40 }
  - { offsetInCU: 0xF667, offset: 0xF667, size: 0x8, addend: 0x0, symName: __ZNSt3__122__compressed_pair_elemIPiLi0ELb0EEC2B8ue170006IDnvEEOT_, symObjAddr: 0x84B4, symBinAddr: 0x10000BFA4, symSize: 0x64 }
  - { offsetInCU: 0xF6A9, offset: 0xF6A9, size: 0x8, addend: 0x0, symName: __ZNSt3__122__compressed_pair_elemINS_9allocatorIiEELi1ELb1EEC2B8ue170006ENS_18__default_init_tagE, symObjAddr: 0x8518, symBinAddr: 0x10000C008, symSize: 0x2C }
  - { offsetInCU: 0xF6DD, offset: 0xF6DD, size: 0x8, addend: 0x0, symName: __ZNSt3__19allocatorIiEC2B8ue170006Ev, symObjAddr: 0x8544, symBinAddr: 0x10000C034, symSize: 0x2C }
  - { offsetInCU: 0xF707, offset: 0xF707, size: 0x8, addend: 0x0, symName: __ZNSt3__116__non_trivial_ifILb1ENS_9allocatorIiEEEC2B8ue170006Ev, symObjAddr: 0x8570, symBinAddr: 0x10000C060, symSize: 0x14 }
  - { offsetInCU: 0xF731, offset: 0xF731, size: 0x8, addend: 0x0, symName: __ZNSt3__128__exception_guard_exceptionsINS_6vectorIiNS_9allocatorIiEEE16__destroy_vectorEEC1B8ue170006ES5_, symObjAddr: 0x8584, symBinAddr: 0x10000C074, symSize: 0x238 }
  - { offsetInCU: 0xF76E, offset: 0xF76E, size: 0x8, addend: 0x0, symName: __ZNSt3__128__exception_guard_exceptionsINS_6vectorIiNS_9allocatorIiEEE16__destroy_vectorEEC2B8ue170006ES5_, symObjAddr: 0x87BC, symBinAddr: 0x10000C2AC, symSize: 0x264 }
  - { offsetInCU: 0xF7AB, offset: 0xF7AB, size: 0x8, addend: 0x0, symName: __ZNSt3__16vectorIiNS_9allocatorIiEEE16__destroy_vectorC2B8ue170006ERS3_, symObjAddr: 0x8A20, symBinAddr: 0x10000C510, symSize: 0x70 }
  - { offsetInCU: 0xF7E4, offset: 0xF7E4, size: 0x8, addend: 0x0, symName: __ZNKSt3__16vectorIiNS_9allocatorIiEEE8max_sizeEv, symObjAddr: 0x8A90, symBinAddr: 0x10000C580, symSize: 0x328 }
  - { offsetInCU: 0xF80D, offset: 0xF80D, size: 0x8, addend: 0x0, symName: __ZNKSt3__16vectorIiNS_9allocatorIiEEE20__throw_length_errorB8ue170006Ev, symObjAddr: 0x8DB8, symBinAddr: 0x10000C8A8, symSize: 0x20 }
  - { offsetInCU: 0xF833, offset: 0xF833, size: 0x8, addend: 0x0, symName: __ZNSt3__16vectorIiNS_9allocatorIiEEE7__allocB8ue170006Ev, symObjAddr: 0x9064, symBinAddr: 0x10000CB54, symSize: 0x28 }
  - { offsetInCU: 0xF859, offset: 0xF859, size: 0x8, addend: 0x0, symName: __ZNSt3__16vectorIiNS_9allocatorIiEEE9__end_capB8ue170006Ev, symObjAddr: 0x908C, symBinAddr: 0x10000CB7C, symSize: 0x28 }
  - { offsetInCU: 0xF87F, offset: 0xF87F, size: 0x8, addend: 0x0, symName: __ZNKSt3__16vectorIiNS_9allocatorIiEEE14__annotate_newB8ue170006Em, symObjAddr: 0x90B4, symBinAddr: 0x10000CBA4, symSize: 0xD4 }
  - { offsetInCU: 0xF8BE, offset: 0xF8BE, size: 0x8, addend: 0x0, symName: __ZNSt3__116allocator_traitsINS_9allocatorIiEEE8max_sizeB8ue170006IS2_vEEmRKS2_, symObjAddr: 0x91B4, symBinAddr: 0x10000CCA4, symSize: 0x24 }
  - { offsetInCU: 0xF8EC, offset: 0xF8EC, size: 0x8, addend: 0x0, symName: __ZNKSt3__16vectorIiNS_9allocatorIiEEE7__allocB8ue170006Ev, symObjAddr: 0x91D8, symBinAddr: 0x10000CCC8, symSize: 0x28 }
  - { offsetInCU: 0xF912, offset: 0xF912, size: 0x8, addend: 0x0, symName: __ZNSt3__114numeric_limitsIlE3maxB8ue170006Ev, symObjAddr: 0x9200, symBinAddr: 0x10000CCF0, symSize: 0x14 }
  - { offsetInCU: 0xF930, offset: 0xF930, size: 0x8, addend: 0x0, symName: __ZNKSt3__16__lessIvvEclB8ue170006ImmEEbRKT_RKT0_, symObjAddr: 0x93FC, symBinAddr: 0x10000CEEC, symSize: 0xBC }
  - { offsetInCU: 0xF984, offset: 0xF984, size: 0x8, addend: 0x0, symName: __ZNKSt3__19allocatorIiE8max_sizeB8ue170006Ev, symObjAddr: 0x94B8, symBinAddr: 0x10000CFA8, symSize: 0x14 }
  - { offsetInCU: 0xF9AA, offset: 0xF9AA, size: 0x8, addend: 0x0, symName: __ZNKSt3__117__compressed_pairIPiNS_9allocatorIiEEE6secondB8ue170006Ev, symObjAddr: 0x94CC, symBinAddr: 0x10000CFBC, symSize: 0x24 }
  - { offsetInCU: 0xF9D0, offset: 0xF9D0, size: 0x8, addend: 0x0, symName: __ZNKSt3__122__compressed_pair_elemINS_9allocatorIiEELi1ELb1EE5__getB8ue170006Ev, symObjAddr: 0x94F0, symBinAddr: 0x10000CFE0, symSize: 0x14 }
  - { offsetInCU: 0xF9F6, offset: 0xF9F6, size: 0x8, addend: 0x0, symName: __ZNSt3__123__libcpp_numeric_limitsIlLb1EE3maxB8ue170006Ev, symObjAddr: 0x9504, symBinAddr: 0x10000CFF4, symSize: 0x8 }
  - { offsetInCU: 0xFA0A, offset: 0xFA0A, size: 0x8, addend: 0x0, symName: __ZNSt12length_errorC1B8ue170006EPKc, symObjAddr: 0x9574, symBinAddr: 0x10000D064, symSize: 0x34 }
  - { offsetInCU: 0xFA42, offset: 0xFA42, size: 0x8, addend: 0x0, symName: __ZNSt12length_errorC2B8ue170006EPKc, symObjAddr: 0x95A8, symBinAddr: 0x10000D098, symSize: 0x8C }
  - { offsetInCU: 0xFA7A, offset: 0xFA7A, size: 0x8, addend: 0x0, symName: __ZNSt3__19allocatorIiE8allocateB8ue170006Em, symObjAddr: 0x9634, symBinAddr: 0x10000D124, symSize: 0x88 }
  - { offsetInCU: 0xFAAE, offset: 0xFAAE, size: 0x8, addend: 0x0, symName: __ZNSt3__117__compressed_pairIPiNS_9allocatorIiEEE6secondB8ue170006Ev, symObjAddr: 0x974C, symBinAddr: 0x10000D23C, symSize: 0x24 }
  - { offsetInCU: 0xFAD4, offset: 0xFAD4, size: 0x8, addend: 0x0, symName: __ZNSt3__122__compressed_pair_elemINS_9allocatorIiEELi1ELb1EE5__getB8ue170006Ev, symObjAddr: 0x9770, symBinAddr: 0x10000D260, symSize: 0x14 }
  - { offsetInCU: 0xFAFA, offset: 0xFAFA, size: 0x8, addend: 0x0, symName: __ZNSt3__117__compressed_pairIPiNS_9allocatorIiEEE5firstB8ue170006Ev, symObjAddr: 0x9784, symBinAddr: 0x10000D274, symSize: 0x24 }
  - { offsetInCU: 0xFB20, offset: 0xFB20, size: 0x8, addend: 0x0, symName: __ZNSt3__122__compressed_pair_elemIPiLi0ELb0EE5__getB8ue170006Ev, symObjAddr: 0x97A8, symBinAddr: 0x10000D298, symSize: 0x14 }
  - { offsetInCU: 0xFB46, offset: 0xFB46, size: 0x8, addend: 0x0, symName: __ZNKSt3__16vectorIiNS_9allocatorIiEEE31__annotate_contiguous_containerEPKvS5_S5_S5_, symObjAddr: 0x97BC, symBinAddr: 0x10000D2AC, symSize: 0x64 }
  - { offsetInCU: 0xFBA8, offset: 0xFBA8, size: 0x8, addend: 0x0, symName: __ZNKSt3__16vectorIiNS_9allocatorIiEEE4dataB8ue170006Ev, symObjAddr: 0x9820, symBinAddr: 0x10000D310, symSize: 0x64 }
  - { offsetInCU: 0xFBCE, offset: 0xFBCE, size: 0x8, addend: 0x0, symName: __ZNKSt3__16vectorIiNS_9allocatorIiEEE8capacityB8ue170006Ev, symObjAddr: 0x9884, symBinAddr: 0x10000D374, symSize: 0xBC }
  - { offsetInCU: 0xFBF4, offset: 0xFBF4, size: 0x8, addend: 0x0, symName: __ZNKSt3__16vectorIiNS_9allocatorIiEEE9__end_capB8ue170006Ev, symObjAddr: 0x9954, symBinAddr: 0x10000D444, symSize: 0x28 }
  - { offsetInCU: 0xFC1A, offset: 0xFC1A, size: 0x8, addend: 0x0, symName: __ZNKSt3__117__compressed_pairIPiNS_9allocatorIiEEE5firstB8ue170006Ev, symObjAddr: 0x997C, symBinAddr: 0x10000D46C, symSize: 0x24 }
  - { offsetInCU: 0xFC40, offset: 0xFC40, size: 0x8, addend: 0x0, symName: __ZNKSt3__122__compressed_pair_elemIPiLi0ELb0EE5__getB8ue170006Ev, symObjAddr: 0x99A0, symBinAddr: 0x10000D490, symSize: 0x14 }
  - { offsetInCU: 0xFC7F, offset: 0xFC7F, size: 0x8, addend: 0x0, symName: __ZNSt3__16vectorIiNS_9allocatorIiEEE21_ConstructTransactionC1B8ue170006ERS3_m, symObjAddr: 0x99B4, symBinAddr: 0x10000D4A4, symSize: 0x3C }
  - { offsetInCU: 0xFCC7, offset: 0xFCC7, size: 0x8, addend: 0x0, symName: __ZNSt3__116allocator_traitsINS_9allocatorIiEEE9constructB8ue170006IiJEvEEvRS2_PT_DpOT0_, symObjAddr: 0x99F0, symBinAddr: 0x10000D4E0, symSize: 0x2C }
  - { offsetInCU: 0xFD09, offset: 0xFD09, size: 0x8, addend: 0x0, symName: __ZNSt3__16vectorIiNS_9allocatorIiEEE21_ConstructTransactionD1B8ue170006Ev, symObjAddr: 0x9A1C, symBinAddr: 0x10000D50C, symSize: 0x2C }
  - { offsetInCU: 0xFD33, offset: 0xFD33, size: 0x8, addend: 0x0, symName: __ZNSt3__16vectorIiNS_9allocatorIiEEE21_ConstructTransactionC2B8ue170006ERS3_m, symObjAddr: 0x9A48, symBinAddr: 0x10000D538, symSize: 0x1D0 }
  - { offsetInCU: 0xFD7B, offset: 0xFD7B, size: 0x8, addend: 0x0, symName: __ZNKSt3__16vectorIiNS_9allocatorIiEEE19__annotate_increaseB8ue170006Em, symObjAddr: 0x9C18, symBinAddr: 0x10000D708, symSize: 0xEC }
  - { offsetInCU: 0xFDB0, offset: 0xFDB0, size: 0x8, addend: 0x0, symName: __ZNSt3__19allocatorIiE9constructB8ue170006IiJEEEvPT_DpOT0_, symObjAddr: 0x9D04, symBinAddr: 0x10000D7F4, symSize: 0x8C }
  - { offsetInCU: 0xFDF2, offset: 0xFDF2, size: 0x8, addend: 0x0, symName: __ZNSt3__16vectorIiNS_9allocatorIiEEE21_ConstructTransactionD2B8ue170006Ev, symObjAddr: 0x9D90, symBinAddr: 0x10000D880, symSize: 0x278 }
  - { offsetInCU: 0xFE1C, offset: 0xFE1C, size: 0x8, addend: 0x0, symName: __ZNKSt3__16vectorIiNS_9allocatorIiEEE17__annotate_shrinkB8ue170006Em, symObjAddr: 0xA008, symBinAddr: 0x10000DAF8, symSize: 0xDC }
  - { offsetInCU: 0xFE51, offset: 0xFE51, size: 0x8, addend: 0x0, symName: __ZNSt3__128__exception_guard_exceptionsINS_6vectorIiNS_9allocatorIiEEE16__destroy_vectorEED2B8ue170006Ev, symObjAddr: 0xA0E4, symBinAddr: 0x10000DBD4, symSize: 0xA8 }
  - { offsetInCU: 0xFE7B, offset: 0xFE7B, size: 0x8, addend: 0x0, symName: __ZNSt3__16vectorIiNS_9allocatorIiEEE16__destroy_vectorclB8ue170006Ev, symObjAddr: 0xA18C, symBinAddr: 0x10000DC7C, symSize: 0x228 }
  - { offsetInCU: 0xFEA1, offset: 0xFEA1, size: 0x8, addend: 0x0, symName: __ZNSt3__16vectorIiNS_9allocatorIiEEE7__clearB8ue170006Ev, symObjAddr: 0xA3B4, symBinAddr: 0x10000DEA4, symSize: 0x64 }
  - { offsetInCU: 0xFEC7, offset: 0xFEC7, size: 0x8, addend: 0x0, symName: __ZNKSt3__16vectorIiNS_9allocatorIiEEE17__annotate_deleteB8ue170006Ev, symObjAddr: 0xA418, symBinAddr: 0x10000DF08, symSize: 0xE0 }
  - { offsetInCU: 0xFEED, offset: 0xFEED, size: 0x8, addend: 0x0, symName: __ZNSt3__116allocator_traitsINS_9allocatorIiEEE10deallocateB8ue170006ERS2_Pim, symObjAddr: 0xA4F8, symBinAddr: 0x10000DFE8, symSize: 0x34 }
  - { offsetInCU: 0xFF2F, offset: 0xFF2F, size: 0x8, addend: 0x0, symName: __ZNSt3__16vectorIiNS_9allocatorIiEEE22__base_destruct_at_endB8ue170006EPi, symObjAddr: 0xA52C, symBinAddr: 0x10000E01C, symSize: 0x128 }
  - { offsetInCU: 0xFF73, offset: 0xFF73, size: 0x8, addend: 0x0, symName: __ZNSt3__116allocator_traitsINS_9allocatorIiEEE7destroyB8ue170006IivEEvRS2_PT_, symObjAddr: 0xA654, symBinAddr: 0x10000E144, symSize: 0x2C }
  - { offsetInCU: 0xFFB0, offset: 0xFFB0, size: 0x8, addend: 0x0, symName: __ZNSt3__19allocatorIiE7destroyB8ue170006EPi, symObjAddr: 0xA680, symBinAddr: 0x10000E170, symSize: 0x14 }
  - { offsetInCU: 0xFFE4, offset: 0xFFE4, size: 0x8, addend: 0x0, symName: __ZNSt3__19allocatorIiE10deallocateB8ue170006EPim, symObjAddr: 0xA694, symBinAddr: 0x10000E184, symSize: 0x7C }
  - { offsetInCU: 0x10026, offset: 0x10026, size: 0x8, addend: 0x0, symName: __ZNSt3__16vectorIiNS_9allocatorIiEEED2B8ue170006Ev, symObjAddr: 0xA78C, symBinAddr: 0x10000E27C, symSize: 0x1E0 }
  - { offsetInCU: 0x10051, offset: 0x10051, size: 0x8, addend: 0x0, symName: __ZNSt3__111char_traitsIcE6lengthB8ue170006EPKc, symObjAddr: 0xB0B8, symBinAddr: 0x10000EBA8, symSize: 0x54 }
  - { offsetInCU: 0x10092, offset: 0x10092, size: 0x8, addend: 0x0, symName: __ZNKSt3__113basic_ostreamIcNS_11char_traitsIcEEE6sentrycvbB8ue170006Ev, symObjAddr: 0xB10C, symBinAddr: 0x10000EBFC, symSize: 0x88 }
  - { offsetInCU: 0x100B8, offset: 0x100B8, size: 0x8, addend: 0x0, symName: __ZNSt3__119ostreambuf_iteratorIcNS_11char_traitsIcEEEC1B8ue170006ERNS_13basic_ostreamIcS2_EE, symObjAddr: 0xB908, symBinAddr: 0x10000F3F8, symSize: 0x34 }
  - { offsetInCU: 0x100F0, offset: 0x100F0, size: 0x8, addend: 0x0, symName: __ZNKSt3__18ios_base5flagsB8ue170006Ev, symObjAddr: 0xB93C, symBinAddr: 0x10000F42C, symSize: 0x8C }
  - { offsetInCU: 0x10118, offset: 0x10118, size: 0x8, addend: 0x0, symName: __ZNKSt3__19basic_iosIcNS_11char_traitsIcEEE4fillB8ue170006Ev, symObjAddr: 0xB9C8, symBinAddr: 0x10000F4B8, symSize: 0x198 }
  - { offsetInCU: 0x10140, offset: 0x10140, size: 0x8, addend: 0x0, symName: __ZNKSt3__119ostreambuf_iteratorIcNS_11char_traitsIcEEE6failedB8ue170006Ev, symObjAddr: 0xBB60, symBinAddr: 0x10000F650, symSize: 0x6C }
  - { offsetInCU: 0x10166, offset: 0x10166, size: 0x8, addend: 0x0, symName: __ZNSt3__19basic_iosIcNS_11char_traitsIcEEE8setstateB8ue170006Ej, symObjAddr: 0xBBCC, symBinAddr: 0x10000F6BC, symSize: 0x2C }
  - { offsetInCU: 0x1019B, offset: 0x1019B, size: 0x8, addend: 0x0, symName: __ZNKSt3__18ios_base5widthB8ue170006Ev, symObjAddr: 0xBBF8, symBinAddr: 0x10000F6E8, symSize: 0x64 }
  - { offsetInCU: 0x101C3, offset: 0x101C3, size: 0x8, addend: 0x0, symName: __ZNSt3__115basic_streambufIcNS_11char_traitsIcEEE5sputnB8ue170006EPKcl, symObjAddr: 0xBC5C, symBinAddr: 0x10000F74C, symSize: 0xC8 }
  - { offsetInCU: 0x10205, offset: 0x10205, size: 0x8, addend: 0x0, symName: __ZNSt3__112basic_stringIcNS_11char_traitsIcEENS_9allocatorIcEEEC1B8ue170006Emc, symObjAddr: 0xBD24, symBinAddr: 0x10000F814, symSize: 0x3C }
  - { offsetInCU: 0x1024D, offset: 0x1024D, size: 0x8, addend: 0x0, symName: __ZNKSt3__112basic_stringIcNS_11char_traitsIcEENS_9allocatorIcEEE4dataB8ue170006Ev, symObjAddr: 0xBD60, symBinAddr: 0x10000F850, symSize: 0x28 }
  - { offsetInCU: 0x10273, offset: 0x10273, size: 0x8, addend: 0x0, symName: __ZNSt3__18ios_base5widthB8ue170006El, symObjAddr: 0xBD88, symBinAddr: 0x10000F878, symSize: 0xB8 }
  - { offsetInCU: 0x102B9, offset: 0x102B9, size: 0x8, addend: 0x0, symName: __ZNSt3__112basic_stringIcNS_11char_traitsIcEENS_9allocatorIcEEEC2B8ue170006Emc, symObjAddr: 0xBE40, symBinAddr: 0x10000F930, symSize: 0x204 }
  - { offsetInCU: 0x10304, offset: 0x10304, size: 0x8, addend: 0x0, symName: __ZNSt3__117__compressed_pairINS_12basic_stringIcNS_11char_traitsIcEENS_9allocatorIcEEE5__repES5_EC1B8ue170006INS_18__default_init_tagESA_EEOT_OT0_, symObjAddr: 0xC044, symBinAddr: 0x10000FB34, symSize: 0x3C }
  - { offsetInCU: 0x1035C, offset: 0x1035C, size: 0x8, addend: 0x0, symName: __ZNSt3__117__compressed_pairINS_12basic_stringIcNS_11char_traitsIcEENS_9allocatorIcEEE5__repES5_EC2B8ue170006INS_18__default_init_tagESA_EEOT_OT0_, symObjAddr: 0xC080, symBinAddr: 0x10000FB70, symSize: 0x3C }
  - { offsetInCU: 0x103B4, offset: 0x103B4, size: 0x8, addend: 0x0, symName: __ZNSt3__122__compressed_pair_elemINS_12basic_stringIcNS_11char_traitsIcEENS_9allocatorIcEEE5__repELi0ELb0EEC2B8ue170006ENS_18__default_init_tagE, symObjAddr: 0xC0BC, symBinAddr: 0x10000FBAC, symSize: 0x14 }
  - { offsetInCU: 0x103E8, offset: 0x103E8, size: 0x8, addend: 0x0, symName: __ZNSt3__122__compressed_pair_elemINS_9allocatorIcEELi1ELb1EEC2B8ue170006ENS_18__default_init_tagE, symObjAddr: 0xC0D0, symBinAddr: 0x10000FBC0, symSize: 0x2C }
  - { offsetInCU: 0x1041C, offset: 0x1041C, size: 0x8, addend: 0x0, symName: __ZNSt3__19allocatorIcEC2B8ue170006Ev, symObjAddr: 0xC0FC, symBinAddr: 0x10000FBEC, symSize: 0x2C }
  - { offsetInCU: 0x10446, offset: 0x10446, size: 0x8, addend: 0x0, symName: __ZNSt3__116__non_trivial_ifILb1ENS_9allocatorIcEEEC2B8ue170006Ev, symObjAddr: 0xC128, symBinAddr: 0x10000FC18, symSize: 0x14 }
  - { offsetInCU: 0x10470, offset: 0x10470, size: 0x8, addend: 0x0, symName: __ZNKSt3__112basic_stringIcNS_11char_traitsIcEENS_9allocatorIcEEE13__get_pointerB8ue170006Ev, symObjAddr: 0xC150, symBinAddr: 0x10000FC40, symSize: 0x54 }
  - { offsetInCU: 0x10496, offset: 0x10496, size: 0x8, addend: 0x0, symName: __ZNKSt3__112basic_stringIcNS_11char_traitsIcEENS_9allocatorIcEEE9__is_longB8ue170006Ev, symObjAddr: 0xC1A4, symBinAddr: 0x10000FC94, symSize: 0xE0 }
  - { offsetInCU: 0x104BC, offset: 0x104BC, size: 0x8, addend: 0x0, symName: __ZNKSt3__112basic_stringIcNS_11char_traitsIcEENS_9allocatorIcEEE18__get_long_pointerB8ue170006Ev, symObjAddr: 0xC284, symBinAddr: 0x10000FD74, symSize: 0x6C }
  - { offsetInCU: 0x104E2, offset: 0x104E2, size: 0x8, addend: 0x0, symName: __ZNKSt3__112basic_stringIcNS_11char_traitsIcEENS_9allocatorIcEEE19__get_short_pointerB8ue170006Ev, symObjAddr: 0xC2F0, symBinAddr: 0x10000FDE0, symSize: 0x28 }
  - { offsetInCU: 0x10508, offset: 0x10508, size: 0x8, addend: 0x0, symName: __ZNKSt3__117__compressed_pairINS_12basic_stringIcNS_11char_traitsIcEENS_9allocatorIcEEE5__repES5_E5firstB8ue170006Ev, symObjAddr: 0xC318, symBinAddr: 0x10000FE08, symSize: 0x24 }
  - { offsetInCU: 0x1052E, offset: 0x1052E, size: 0x8, addend: 0x0, symName: __ZNKSt3__122__compressed_pair_elemINS_12basic_stringIcNS_11char_traitsIcEENS_9allocatorIcEEE5__repELi0ELb0EE5__getB8ue170006Ev, symObjAddr: 0xC33C, symBinAddr: 0x10000FE2C, symSize: 0x14 }
  - { offsetInCU: 0x10554, offset: 0x10554, size: 0x8, addend: 0x0, symName: __ZNSt3__114pointer_traitsIPKcE10pointer_toB8ue170006ERS1_, symObjAddr: 0xC350, symBinAddr: 0x10000FE40, symSize: 0x14 }
  - { offsetInCU: 0x10577, offset: 0x10577, size: 0x8, addend: 0x0, symName: __ZNSt3__119ostreambuf_iteratorIcNS_11char_traitsIcEEEC2B8ue170006ERNS_13basic_ostreamIcS2_EE, symObjAddr: 0xC364, symBinAddr: 0x10000FE54, symSize: 0x120 }
  - { offsetInCU: 0x105AF, offset: 0x105AF, size: 0x8, addend: 0x0, symName: __ZNKSt3__19basic_iosIcNS_11char_traitsIcEEE5rdbufB8ue170006Ev, symObjAddr: 0xC484, symBinAddr: 0x10000FF74, symSize: 0x24 }
  - { offsetInCU: 0x105D7, offset: 0x105D7, size: 0x8, addend: 0x0, symName: __ZNKSt3__18ios_base5rdbufB8ue170006Ev, symObjAddr: 0xC4A8, symBinAddr: 0x10000FF98, symSize: 0x64 }
  - { offsetInCU: 0x105FD, offset: 0x105FD, size: 0x8, addend: 0x0, symName: __ZNSt3__111char_traitsIcE11eq_int_typeB8ue170006Eii, symObjAddr: 0xC50C, symBinAddr: 0x10000FFFC, symSize: 0x28 }
  - { offsetInCU: 0x10630, offset: 0x10630, size: 0x8, addend: 0x0, symName: __ZNSt3__111char_traitsIcE3eofB8ue170006Ev, symObjAddr: 0xC534, symBinAddr: 0x100010024, symSize: 0x8 }
  - { offsetInCU: 0x10644, offset: 0x10644, size: 0x8, addend: 0x0, symName: __ZNKSt3__19basic_iosIcNS_11char_traitsIcEEE5widenB8ue170006Ec, symObjAddr: 0xC53C, symBinAddr: 0x10001002C, symSize: 0x2B8 }
  - { offsetInCU: 0x106B4, offset: 0x106B4, size: 0x8, addend: 0x0, symName: __ZNKSt3__15ctypeIcE5widenB8ue170006Ec, symObjAddr: 0xC820, symBinAddr: 0x100010310, symSize: 0xBC }
  - { offsetInCU: 0x106E9, offset: 0x106E9, size: 0x8, addend: 0x0, symName: __ZNSt3__18ios_base8setstateB8ue170006Ej, symObjAddr: 0xC8DC, symBinAddr: 0x1000103CC, symSize: 0x9C }
  - { offsetInCU: 0x10720, offset: 0x10720, size: 0x8, addend: 0x0, symName: __ZNSt3__16vectorINS_4pairIiiEENS_9allocatorIS2_EEE11__make_iterB8ue170006EPS2_, symObjAddr: 0xC99C, symBinAddr: 0x10001048C, symSize: 0x1FC }
  - { offsetInCU: 0x10757, offset: 0x10757, size: 0x8, addend: 0x0, symName: __ZNSt3__111__wrap_iterIPNS_4pairIiiEEEC1B8ue170006ES3_, symObjAddr: 0xCB98, symBinAddr: 0x100010688, symSize: 0x34 }
  - { offsetInCU: 0x1078F, offset: 0x1078F, size: 0x8, addend: 0x0, symName: __ZNSt3__111__wrap_iterIPNS_4pairIiiEEEC2B8ue170006ES3_, symObjAddr: 0xCBCC, symBinAddr: 0x1000106BC, symSize: 0x70 }
  - { offsetInCU: 0x107C7, offset: 0x107C7, size: 0x8, addend: 0x0, symName: __ZNSt3__16vectorIiNS_9allocatorIiEEE11__make_iterB8ue170006EPi, symObjAddr: 0xCC3C, symBinAddr: 0x10001072C, symSize: 0x1FC }
  - { offsetInCU: 0x107FE, offset: 0x107FE, size: 0x8, addend: 0x0, symName: __ZNSt3__111__wrap_iterIPiEC1B8ue170006ES1_, symObjAddr: 0xCE38, symBinAddr: 0x100010928, symSize: 0x34 }
  - { offsetInCU: 0x10836, offset: 0x10836, size: 0x8, addend: 0x0, symName: __ZNSt3__111__wrap_iterIPiEC2B8ue170006ES1_, symObjAddr: 0xCE6C, symBinAddr: 0x10001095C, symSize: 0x70 }
  - { offsetInCU: 0x1086E, offset: 0x1086E, size: 0x8, addend: 0x0, symName: __ZNKSt3__111__wrap_iterIPiE4baseB8ue170006Ev, symObjAddr: 0xCF24, symBinAddr: 0x100010A14, symSize: 0x60 }
  - { offsetInCU: 0x10894, offset: 0x10894, size: 0x8, addend: 0x0, symName: __ZNSt3__14pairIiiEC1B8ue170006ERKiS3_, symObjAddr: 0xCF84, symBinAddr: 0x100010A74, symSize: 0x3C }
  - { offsetInCU: 0x108DA, offset: 0x108DA, size: 0x8, addend: 0x0, symName: __ZNSt3__14pairIiiEC2B8ue170006ERKiS3_, symObjAddr: 0xCFC0, symBinAddr: 0x100010AB0, symSize: 0x1D8 }
  - { offsetInCU: 0x10920, offset: 0x10920, size: 0x8, addend: 0x0, symName: __ZNSt3__16vectorINS_4pairIiiEENS_9allocatorIS2_EEE9__end_capB8ue170006Ev, symObjAddr: 0xD1E0, symBinAddr: 0x100010CD0, symSize: 0x28 }
  - { offsetInCU: 0x10946, offset: 0x10946, size: 0x8, addend: 0x0, symName: __ZNSt3__16vectorINS_4pairIiiEENS_9allocatorIS2_EEE22__construct_one_at_endB8ue170006IJS2_EEEvDpOT_, symObjAddr: 0xD208, symBinAddr: 0x100010CF8, symSize: 0x380 }
  - { offsetInCU: 0x1099B, offset: 0x1099B, size: 0x8, addend: 0x0, symName: __ZNSt3__16vectorINS_4pairIiiEENS_9allocatorIS2_EEE12__move_rangeEPS2_S6_S6_, symObjAddr: 0xD588, symBinAddr: 0x100011078, symSize: 0x464 }
  - { offsetInCU: 0x10A63, offset: 0x10A63, size: 0x8, addend: 0x0, symName: __ZNSt3__16vectorINS_4pairIiiEENS_9allocatorIS2_EEE7__allocB8ue170006Ev, symObjAddr: 0xD9EC, symBinAddr: 0x1000114DC, symSize: 0x28 }
  - { offsetInCU: 0x10A89, offset: 0x10A89, size: 0x8, addend: 0x0, symName: __ZNKSt3__16vectorINS_4pairIiiEENS_9allocatorIS2_EEE11__recommendB8ue170006Em, symObjAddr: 0xDA14, symBinAddr: 0x100011504, symSize: 0x384 }
  - { offsetInCU: 0x10AE5, offset: 0x10AE5, size: 0x8, addend: 0x0, symName: __ZNSt3__114__split_bufferINS_4pairIiiEERNS_9allocatorIS2_EEEC1EmmS5_, symObjAddr: 0xDD98, symBinAddr: 0x100011888, symSize: 0x44 }
  - { offsetInCU: 0x10B3B, offset: 0x10B3B, size: 0x8, addend: 0x0, symName: __ZNSt3__114__split_bufferINS_4pairIiiEERNS_9allocatorIS2_EEE9push_backEOS2_, symObjAddr: 0xDDDC, symBinAddr: 0x1000118CC, symSize: 0xA60 }
  - { offsetInCU: 0x10BBA, offset: 0x10BBA, size: 0x8, addend: 0x0, symName: __ZNSt3__114__split_bufferINS_4pairIiiEERNS_9allocatorIS2_EEED1Ev, symObjAddr: 0xEEB4, symBinAddr: 0x1000129A4, symSize: 0x2C }
  - { offsetInCU: 0x10BE6, offset: 0x10BE6, size: 0x8, addend: 0x0, symName: __ZNKSt3__111__wrap_iterIPKNS_4pairIiiEEE4baseB8ue170006Ev, symObjAddr: 0xEEE0, symBinAddr: 0x1000129D0, symSize: 0x60 }
  - { offsetInCU: 0x10C0C, offset: 0x10C0C, size: 0x8, addend: 0x0, symName: __ZNKSt3__111__wrap_iterIPNS_4pairIiiEEE4baseB8ue170006Ev, symObjAddr: 0xEF40, symBinAddr: 0x100012A30, symSize: 0x60 }
  - { offsetInCU: 0x10C32, offset: 0x10C32, size: 0x8, addend: 0x0, symName: __ZNSt3__117__compressed_pairIPNS_4pairIiiEENS_9allocatorIS2_EEE5firstB8ue170006Ev, symObjAddr: 0xEFA0, symBinAddr: 0x100012A90, symSize: 0x24 }
  - { offsetInCU: 0x10C58, offset: 0x10C58, size: 0x8, addend: 0x0, symName: __ZNSt3__122__compressed_pair_elemIPNS_4pairIiiEELi0ELb0EE5__getB8ue170006Ev, symObjAddr: 0xEFC4, symBinAddr: 0x100012AB4, symSize: 0x14 }
  - { offsetInCU: 0x10C97, offset: 0x10C97, size: 0x8, addend: 0x0, symName: __ZNSt3__16vectorINS_4pairIiiEENS_9allocatorIS2_EEE21_ConstructTransactionC1B8ue170006ERS5_m, symObjAddr: 0xEFD8, symBinAddr: 0x100012AC8, symSize: 0x3C }
  - { offsetInCU: 0x10CDF, offset: 0x10CDF, size: 0x8, addend: 0x0, symName: __ZNSt3__116allocator_traitsINS_9allocatorINS_4pairIiiEEEEE9constructB8ue170006IS3_JS3_EvEEvRS4_PT_DpOT0_, symObjAddr: 0xF014, symBinAddr: 0x100012B04, symSize: 0x34 }
  - { offsetInCU: 0x10D36, offset: 0x10D36, size: 0x8, addend: 0x0, symName: __ZNSt3__16vectorINS_4pairIiiEENS_9allocatorIS2_EEE21_ConstructTransactionD1B8ue170006Ev, symObjAddr: 0xF05C, symBinAddr: 0x100012B4C, symSize: 0x2C }
  - { offsetInCU: 0x10D60, offset: 0x10D60, size: 0x8, addend: 0x0, symName: __ZNSt3__16vectorINS_4pairIiiEENS_9allocatorIS2_EEE21_ConstructTransactionC2B8ue170006ERS5_m, symObjAddr: 0xF088, symBinAddr: 0x100012B78, symSize: 0x1D0 }
  - { offsetInCU: 0x10DA8, offset: 0x10DA8, size: 0x8, addend: 0x0, symName: __ZNKSt3__16vectorINS_4pairIiiEENS_9allocatorIS2_EEE19__annotate_increaseB8ue170006Em, symObjAddr: 0xF258, symBinAddr: 0x100012D48, symSize: 0xEC }
  - { offsetInCU: 0x10DDD, offset: 0x10DDD, size: 0x8, addend: 0x0, symName: __ZNKSt3__16vectorINS_4pairIiiEENS_9allocatorIS2_EEE31__annotate_contiguous_containerEPKvS7_S7_S7_, symObjAddr: 0xF344, symBinAddr: 0x100012E34, symSize: 0x64 }
  - { offsetInCU: 0x10E3F, offset: 0x10E3F, size: 0x8, addend: 0x0, symName: __ZNKSt3__16vectorINS_4pairIiiEENS_9allocatorIS2_EEE4dataB8ue170006Ev, symObjAddr: 0xF3A8, symBinAddr: 0x100012E98, symSize: 0x64 }
  - { offsetInCU: 0x10E65, offset: 0x10E65, size: 0x8, addend: 0x0, symName: __ZNKSt3__16vectorINS_4pairIiiEENS_9allocatorIS2_EEE8capacityB8ue170006Ev, symObjAddr: 0xF40C, symBinAddr: 0x100012EFC, symSize: 0xBC }
  - { offsetInCU: 0x10E8B, offset: 0x10E8B, size: 0x8, addend: 0x0, symName: __ZNKSt3__16vectorINS_4pairIiiEENS_9allocatorIS2_EEE9__end_capB8ue170006Ev, symObjAddr: 0xF4C8, symBinAddr: 0x100012FB8, symSize: 0x28 }
  - { offsetInCU: 0x10EB1, offset: 0x10EB1, size: 0x8, addend: 0x0, symName: __ZNKSt3__117__compressed_pairIPNS_4pairIiiEENS_9allocatorIS2_EEE5firstB8ue170006Ev, symObjAddr: 0xF4F0, symBinAddr: 0x100012FE0, symSize: 0x24 }
  - { offsetInCU: 0x10ED7, offset: 0x10ED7, size: 0x8, addend: 0x0, symName: __ZNKSt3__122__compressed_pair_elemIPNS_4pairIiiEELi0ELb0EE5__getB8ue170006Ev, symObjAddr: 0xF514, symBinAddr: 0x100013004, symSize: 0x14 }
  - { offsetInCU: 0x10EFD, offset: 0x10EFD, size: 0x8, addend: 0x0, symName: __ZNSt3__19allocatorINS_4pairIiiEEE9constructB8ue170006IS2_JS2_EEEvPT_DpOT0_, symObjAddr: 0xF528, symBinAddr: 0x100013018, symSize: 0x34 }
  - { offsetInCU: 0x10F53, offset: 0x10F53, size: 0x8, addend: 0x0, symName: __ZNSt3__16vectorINS_4pairIiiEENS_9allocatorIS2_EEE21_ConstructTransactionD2B8ue170006Ev, symObjAddr: 0xF55C, symBinAddr: 0x10001304C, symSize: 0x278 }
  - { offsetInCU: 0x10F7D, offset: 0x10F7D, size: 0x8, addend: 0x0, symName: __ZNKSt3__16vectorINS_4pairIiiEENS_9allocatorIS2_EEE17__annotate_shrinkB8ue170006Em, symObjAddr: 0xF7D4, symBinAddr: 0x1000132C4, symSize: 0xDC }
  - { offsetInCU: 0x10FD5, offset: 0x10FD5, size: 0x8, addend: 0x0, symName: __ZNKSt3__120__move_backward_loopINS_17_ClassicAlgPolicyEEclB8ue170006IPNS_4pairIiiEES6_S6_EENS4_IT_T1_EES7_T0_S8_, symObjAddr: 0x10850, symBinAddr: 0x100014340, symSize: 0x4F0 }
  - { offsetInCU: 0x1106C, offset: 0x1106C, size: 0x8, addend: 0x0, symName: __ZNSt3__18_IterOpsINS_17_ClassicAlgPolicyEE4nextB8ue170006IPNS_4pairIiiEEEET_S7_S7_, symObjAddr: 0x10FF8, symBinAddr: 0x100014AE8, symSize: 0x18 }
  - { offsetInCU: 0x110A2, offset: 0x110A2, size: 0x8, addend: 0x0, symName: __ZNSt3__18_IterOpsINS_17_ClassicAlgPolicyEE11__iter_moveB8ue170006IRPNS_4pairIiiEEEENS_9enable_ifIXsr12is_referenceIDTdeclsr3stdE7declvalIRT_EEEEE5valueEDTclsr3stdE4movedeclsr3stdE7declvalISA_EEEEE4typeEOS9_, symObjAddr: 0x11010, symBinAddr: 0x100014B00, symSize: 0x6C }
  - { offsetInCU: 0x110CE, offset: 0x110CE, size: 0x8, addend: 0x0, symName: __ZNSt3__18_IterOpsINS_17_ClassicAlgPolicyEE25__validate_iter_referenceB8ue170006IRPNS_4pairIiiEEEEvv, symObjAddr: 0x1107C, symBinAddr: 0x100014B6C, symSize: 0x4 }
  - { offsetInCU: 0x110EC, offset: 0x110EC, size: 0x8, addend: 0x0, symName: __ZNSt3__118__unwrap_iter_implIPNS_4pairIiiEELb1EE8__unwrapB8ue170006ES3_, symObjAddr: 0x11080, symBinAddr: 0x100014B70, symSize: 0x24 }
  - { offsetInCU: 0x1110F, offset: 0x1110F, size: 0x8, addend: 0x0, symName: __ZNSt3__14pairIPNS0_IiiEES2_EC1B8ue170006ERKS2_S5_, symObjAddr: 0x110A4, symBinAddr: 0x100014B94, symSize: 0x3C }
  - { offsetInCU: 0x11155, offset: 0x11155, size: 0x8, addend: 0x0, symName: __ZNSt3__14pairIPNS0_IiiEES2_EC2B8ue170006ERKS2_S5_, symObjAddr: 0x110E0, symBinAddr: 0x100014BD0, symSize: 0x138 }
  - { offsetInCU: 0x1119B, offset: 0x1119B, size: 0x8, addend: 0x0, symName: __ZNSt3__118__unwrap_iter_implIPNS_4pairIiiEELb1EE8__rewrapB8ue170006ES3_S3_, symObjAddr: 0x11218, symBinAddr: 0x100014D08, symSize: 0x50 }
  - { offsetInCU: 0x111CC, offset: 0x111CC, size: 0x8, addend: 0x0, symName: __ZNSt3__117__compressed_pairIPNS_4pairIiiEENS_9allocatorIS2_EEE6secondB8ue170006Ev, symObjAddr: 0x11268, symBinAddr: 0x100014D58, symSize: 0x24 }
  - { offsetInCU: 0x111F2, offset: 0x111F2, size: 0x8, addend: 0x0, symName: __ZNSt3__122__compressed_pair_elemINS_9allocatorINS_4pairIiiEEEELi1ELb1EE5__getB8ue170006Ev, symObjAddr: 0x1128C, symBinAddr: 0x100014D7C, symSize: 0x14 }
  - { offsetInCU: 0x11218, offset: 0x11218, size: 0x8, addend: 0x0, symName: __ZNKSt3__16vectorINS_4pairIiiEENS_9allocatorIS2_EEE8max_sizeEv, symObjAddr: 0x112A0, symBinAddr: 0x100014D90, symSize: 0x328 }
  - { offsetInCU: 0x11241, offset: 0x11241, size: 0x8, addend: 0x0, symName: __ZNKSt3__16vectorINS_4pairIiiEENS_9allocatorIS2_EEE20__throw_length_errorB8ue170006Ev, symObjAddr: 0x115C8, symBinAddr: 0x1000150B8, symSize: 0x20 }
  - { offsetInCU: 0x11271, offset: 0x11271, size: 0x8, addend: 0x0, symName: __ZNSt3__116allocator_traitsINS_9allocatorINS_4pairIiiEEEEE8max_sizeB8ue170006IS4_vEEmRKS4_, symObjAddr: 0x11614, symBinAddr: 0x100015104, symSize: 0x24 }
  - { offsetInCU: 0x1129F, offset: 0x1129F, size: 0x8, addend: 0x0, symName: __ZNKSt3__16vectorINS_4pairIiiEENS_9allocatorIS2_EEE7__allocB8ue170006Ev, symObjAddr: 0x11638, symBinAddr: 0x100015128, symSize: 0x28 }
  - { offsetInCU: 0x112C5, offset: 0x112C5, size: 0x8, addend: 0x0, symName: __ZNKSt3__19allocatorINS_4pairIiiEEE8max_sizeB8ue170006Ev, symObjAddr: 0x11660, symBinAddr: 0x100015150, symSize: 0x14 }
  - { offsetInCU: 0x112EB, offset: 0x112EB, size: 0x8, addend: 0x0, symName: __ZNKSt3__117__compressed_pairIPNS_4pairIiiEENS_9allocatorIS2_EEE6secondB8ue170006Ev, symObjAddr: 0x11674, symBinAddr: 0x100015164, symSize: 0x24 }
  - { offsetInCU: 0x11311, offset: 0x11311, size: 0x8, addend: 0x0, symName: __ZNKSt3__122__compressed_pair_elemINS_9allocatorINS_4pairIiiEEEELi1ELb1EE5__getB8ue170006Ev, symObjAddr: 0x11698, symBinAddr: 0x100015188, symSize: 0x14 }
  - { offsetInCU: 0x11337, offset: 0x11337, size: 0x8, addend: 0x0, symName: __ZNSt3__114__split_bufferINS_4pairIiiEERNS_9allocatorIS2_EEEC2EmmS5_, symObjAddr: 0x11894, symBinAddr: 0x100015384, symSize: 0x520 }
  - { offsetInCU: 0x113B2, offset: 0x113B2, size: 0x8, addend: 0x0, symName: __ZNSt3__117__compressed_pairIPNS_4pairIiiEERNS_9allocatorIS2_EEEC1B8ue170006IDnS6_EEOT_OT0_, symObjAddr: 0x11DB4, symBinAddr: 0x1000158A4, symSize: 0x3C }
  - { offsetInCU: 0x1140A, offset: 0x1140A, size: 0x8, addend: 0x0, symName: __ZNSt3__114__split_bufferINS_4pairIiiEERNS_9allocatorIS2_EEE7__allocB8ue170006Ev, symObjAddr: 0x1207C, symBinAddr: 0x100015B6C, symSize: 0x28 }
  - { offsetInCU: 0x11430, offset: 0x11430, size: 0x8, addend: 0x0, symName: __ZNSt3__114__split_bufferINS_4pairIiiEERNS_9allocatorIS2_EEE9__end_capB8ue170006Ev, symObjAddr: 0x120A4, symBinAddr: 0x100015B94, symSize: 0x28 }
  - { offsetInCU: 0x11456, offset: 0x11456, size: 0x8, addend: 0x0, symName: __ZNSt3__117__compressed_pairIPNS_4pairIiiEERNS_9allocatorIS2_EEEC2B8ue170006IDnS6_EEOT_OT0_, symObjAddr: 0x120CC, symBinAddr: 0x100015BBC, symSize: 0x48 }
  - { offsetInCU: 0x114AE, offset: 0x114AE, size: 0x8, addend: 0x0, symName: __ZNSt3__122__compressed_pair_elemIPNS_4pairIiiEELi0ELb0EEC2B8ue170006IDnvEEOT_, symObjAddr: 0x12114, symBinAddr: 0x100015C04, symSize: 0x64 }
  - { offsetInCU: 0x114F0, offset: 0x114F0, size: 0x8, addend: 0x0, symName: __ZNSt3__122__compressed_pair_elemIRNS_9allocatorINS_4pairIiiEEEELi1ELb0EEC2B8ue170006IS5_vEEOT_, symObjAddr: 0x12178, symBinAddr: 0x100015C68, symSize: 0x70 }
  - { offsetInCU: 0x11532, offset: 0x11532, size: 0x8, addend: 0x0, symName: __ZNSt3__19allocatorINS_4pairIiiEEE8allocateB8ue170006Em, symObjAddr: 0x121E8, symBinAddr: 0x100015CD8, symSize: 0x88 }
  - { offsetInCU: 0x11566, offset: 0x11566, size: 0x8, addend: 0x0, symName: __ZNSt3__117__compressed_pairIPNS_4pairIiiEERNS_9allocatorIS2_EEE6secondB8ue170006Ev, symObjAddr: 0x12270, symBinAddr: 0x100015D60, symSize: 0x28 }
  - { offsetInCU: 0x1158C, offset: 0x1158C, size: 0x8, addend: 0x0, symName: __ZNSt3__122__compressed_pair_elemIRNS_9allocatorINS_4pairIiiEEEELi1ELb0EE5__getB8ue170006Ev, symObjAddr: 0x12298, symBinAddr: 0x100015D88, symSize: 0x60 }
  - { offsetInCU: 0x115B2, offset: 0x115B2, size: 0x8, addend: 0x0, symName: __ZNSt3__117__compressed_pairIPNS_4pairIiiEERNS_9allocatorIS2_EEE5firstB8ue170006Ev, symObjAddr: 0x122F8, symBinAddr: 0x100015DE8, symSize: 0x24 }
  - { offsetInCU: 0x115D8, offset: 0x115D8, size: 0x8, addend: 0x0, symName: __ZNSt3__114__split_bufferINS_4pairIiiEERNS_9allocatorIS2_EEE18__construct_at_endINS_13move_iteratorIPS2_EEEENS_9enable_ifIXsr31__has_forward_iterator_categoryIT_EE5valueEvE4typeESC_SC_, symObjAddr: 0x12570, symBinAddr: 0x100016060, symSize: 0x3D4 }
  - { offsetInCU: 0x1162E, offset: 0x1162E, size: 0x8, addend: 0x0, symName: __ZNSt3__113move_iteratorIPNS_4pairIiiEEEC1B8ue170006ES3_, symObjAddr: 0x12944, symBinAddr: 0x100016434, symSize: 0x34 }
  - { offsetInCU: 0x11670, offset: 0x11670, size: 0x8, addend: 0x0, symName: __ZNKSt3__111__move_loopINS_17_ClassicAlgPolicyEEclB8ue170006IPNS_4pairIiiEES6_S6_EENS4_IT_T1_EES7_T0_S8_, symObjAddr: 0x134A8, symBinAddr: 0x100016F98, symSize: 0x428 }
  - { offsetInCU: 0x116E5, offset: 0x116E5, size: 0x8, addend: 0x0, symName: __ZNSt3__114__split_bufferINS_4pairIiiEERNS_9allocatorIS2_EEE28__construct_at_end_with_sizeINS_13move_iteratorIPS2_EEEEvT_m, symObjAddr: 0x138D0, symBinAddr: 0x1000173C0, symSize: 0x498 }
  - { offsetInCU: 0x11755, offset: 0x11755, size: 0x8, addend: 0x0, symName: __ZNSt3__114__split_bufferINS_4pairIiiEERNS_9allocatorIS2_EEE21_ConstructTransactionC1B8ue170006EPPS2_m, symObjAddr: 0x140B8, symBinAddr: 0x100017BA8, symSize: 0x3C }
  - { offsetInCU: 0x1179B, offset: 0x1179B, size: 0x8, addend: 0x0, symName: __ZNKSt3__113move_iteratorIPNS_4pairIiiEEEdeB8ue170006Ev, symObjAddr: 0x140F4, symBinAddr: 0x100017BE4, symSize: 0x60 }
  - { offsetInCU: 0x117C1, offset: 0x117C1, size: 0x8, addend: 0x0, symName: __ZNSt3__113move_iteratorIPNS_4pairIiiEEEppB8ue170006Ev, symObjAddr: 0x14154, symBinAddr: 0x100017C44, symSize: 0x68 }
  - { offsetInCU: 0x117E7, offset: 0x117E7, size: 0x8, addend: 0x0, symName: __ZNSt3__114__split_bufferINS_4pairIiiEERNS_9allocatorIS2_EEE21_ConstructTransactionD1B8ue170006Ev, symObjAddr: 0x141BC, symBinAddr: 0x100017CAC, symSize: 0x2C }
  - { offsetInCU: 0x11811, offset: 0x11811, size: 0x8, addend: 0x0, symName: __ZNSt3__114__split_bufferINS_4pairIiiEERNS_9allocatorIS2_EEE21_ConstructTransactionC2B8ue170006EPPS2_m, symObjAddr: 0x141E8, symBinAddr: 0x100017CD8, symSize: 0x184 }
  - { offsetInCU: 0x11857, offset: 0x11857, size: 0x8, addend: 0x0, symName: __ZNSt3__114__split_bufferINS_4pairIiiEERNS_9allocatorIS2_EEE21_ConstructTransactionD2B8ue170006Ev, symObjAddr: 0x1436C, symBinAddr: 0x100017E5C, symSize: 0xE0 }
  - { offsetInCU: 0x11881, offset: 0x11881, size: 0x8, addend: 0x0, symName: __ZNKSt3__113move_iteratorIPNS_4pairIiiEEE4baseB8ue170006Ev, symObjAddr: 0x14708, symBinAddr: 0x1000181F8, symSize: 0x60 }
  - { offsetInCU: 0x118A7, offset: 0x118A7, size: 0x8, addend: 0x0, symName: __ZNSt3__113move_iteratorIPNS_4pairIiiEEEC2B8ue170006ES3_, symObjAddr: 0x14768, symBinAddr: 0x100018258, symSize: 0x70 }
  - { offsetInCU: 0x118DF, offset: 0x118DF, size: 0x8, addend: 0x0, symName: __ZNKSt3__16vectorINS_4pairIiiEENS_9allocatorIS2_EEE17__annotate_deleteB8ue170006Ev, symObjAddr: 0x147D8, symBinAddr: 0x1000182C8, symSize: 0xE0 }
  - { offsetInCU: 0x11905, offset: 0x11905, size: 0x8, addend: 0x0, symName: __ZNSt3__116reverse_iteratorIPNS_4pairIiiEEEC1B8ue170006ES3_, symObjAddr: 0x14E10, symBinAddr: 0x100018900, symSize: 0x34 }
  - { offsetInCU: 0x1193D, offset: 0x1193D, size: 0x8, addend: 0x0, symName: __ZNKSt3__116reverse_iteratorIPNS_4pairIiiEEE4baseB8ue170006Ev, symObjAddr: 0x14E44, symBinAddr: 0x100018934, symSize: 0x64 }
  - { offsetInCU: 0x11963, offset: 0x11963, size: 0x8, addend: 0x0, symName: __ZNKSt3__16vectorINS_4pairIiiEENS_9allocatorIS2_EEE14__annotate_newB8ue170006Em, symObjAddr: 0x153DC, symBinAddr: 0x100018ECC, symSize: 0xD4 }
  - { offsetInCU: 0x11998, offset: 0x11998, size: 0x8, addend: 0x0, symName: __ZNSt3__129_AllocatorDestroyRangeReverseINS_9allocatorINS_4pairIiiEEEENS_16reverse_iteratorIPS3_EEEC1B8ue170006ERS4_RS7_SA_, symObjAddr: 0x156A8, symBinAddr: 0x100019198, symSize: 0x44 }
  - { offsetInCU: 0x119EF, offset: 0x119EF, size: 0x8, addend: 0x0, symName: __ZNKSt3__116reverse_iteratorIPNS_4pairIiiEEEdeB8ue170006Ev, symObjAddr: 0x15758, symBinAddr: 0x100019248, symSize: 0x74 }
  - { offsetInCU: 0x11A23, offset: 0x11A23, size: 0x8, addend: 0x0, symName: __ZNSt3__116reverse_iteratorIPNS_4pairIiiEEEppB8ue170006Ev, symObjAddr: 0x157CC, symBinAddr: 0x1000192BC, symSize: 0x6C }
  - { offsetInCU: 0x11A49, offset: 0x11A49, size: 0x8, addend: 0x0, symName: __ZNSt3__128__exception_guard_exceptionsINS_29_AllocatorDestroyRangeReverseINS_9allocatorINS_4pairIiiEEEENS_16reverse_iteratorIPS4_EEEEE10__completeB8ue170006Ev, symObjAddr: 0x15838, symBinAddr: 0x100019328, symSize: 0x8C }
  - { offsetInCU: 0x11A6F, offset: 0x11A6F, size: 0x8, addend: 0x0, symName: __ZNSt3__128__exception_guard_exceptionsINS_29_AllocatorDestroyRangeReverseINS_9allocatorINS_4pairIiiEEEENS_16reverse_iteratorIPS4_EEEEED1B8ue170006Ev, symObjAddr: 0x158C4, symBinAddr: 0x1000193B4, symSize: 0x2C }
  - { offsetInCU: 0x11A99, offset: 0x11A99, size: 0x8, addend: 0x0, symName: __ZNSt3__128__exception_guard_exceptionsINS_29_AllocatorDestroyRangeReverseINS_9allocatorINS_4pairIiiEEEENS_16reverse_iteratorIPS4_EEEEEC1B8ue170006ES9_, symObjAddr: 0x158F0, symBinAddr: 0x1000193E0, symSize: 0x34 }
  - { offsetInCU: 0x11AD2, offset: 0x11AD2, size: 0x8, addend: 0x0, symName: __ZNSt3__128__exception_guard_exceptionsINS_29_AllocatorDestroyRangeReverseINS_9allocatorINS_4pairIiiEEEENS_16reverse_iteratorIPS4_EEEEEC2B8ue170006ES9_, symObjAddr: 0x15924, symBinAddr: 0x100019414, symSize: 0xA4 }
  - { offsetInCU: 0x11B0B, offset: 0x11B0B, size: 0x8, addend: 0x0, symName: __ZNSt3__129_AllocatorDestroyRangeReverseINS_9allocatorINS_4pairIiiEEEENS_16reverse_iteratorIPS3_EEEC2B8ue170006ERS4_RS7_SA_, symObjAddr: 0x159C8, symBinAddr: 0x1000194B8, symSize: 0x104 }
  - { offsetInCU: 0x11B67, offset: 0x11B67, size: 0x8, addend: 0x0, symName: __ZNSt3__119__to_address_helperINS_16reverse_iteratorIPNS_4pairIiiEEEEvE6__callB8ue170006ERKS5_, symObjAddr: 0x15ACC, symBinAddr: 0x1000195BC, symSize: 0x58 }
  - { offsetInCU: 0x11B8A, offset: 0x11B8A, size: 0x8, addend: 0x0, symName: __ZNKSt3__116reverse_iteratorIPNS_4pairIiiEEEptB8ue170006Ev, symObjAddr: 0x15B24, symBinAddr: 0x100019614, symSize: 0x24 }
  - { offsetInCU: 0x11BB0, offset: 0x11BB0, size: 0x8, addend: 0x0, symName: __ZNSt3__128__exception_guard_exceptionsINS_29_AllocatorDestroyRangeReverseINS_9allocatorINS_4pairIiiEEEENS_16reverse_iteratorIPS4_EEEEED2B8ue170006Ev, symObjAddr: 0x15B48, symBinAddr: 0x100019638, symSize: 0xA8 }
  - { offsetInCU: 0x11BDA, offset: 0x11BDA, size: 0x8, addend: 0x0, symName: __ZNKSt3__129_AllocatorDestroyRangeReverseINS_9allocatorINS_4pairIiiEEEENS_16reverse_iteratorIPS3_EEEclB8ue170006Ev, symObjAddr: 0x15BF0, symBinAddr: 0x1000196E0, symSize: 0x3A8 }
  - { offsetInCU: 0x11C01, offset: 0x11C01, size: 0x8, addend: 0x0, symName: __ZNSt3__116reverse_iteratorINS0_IPNS_4pairIiiEEEEEC1B8ue170006ES4_, symObjAddr: 0x16008, symBinAddr: 0x100019AF8, symSize: 0x248 }
  - { offsetInCU: 0x11C3E, offset: 0x11C3E, size: 0x8, addend: 0x0, symName: __ZNSt3__116allocator_traitsINS_9allocatorINS_4pairIiiEEEEE7destroyB8ue170006IS3_vEEvRS4_PT_, symObjAddr: 0x1651C, symBinAddr: 0x10001A00C, symSize: 0x2C }
  - { offsetInCU: 0x11C7B, offset: 0x11C7B, size: 0x8, addend: 0x0, symName: __ZNSt3__116reverse_iteratorINS0_IPNS_4pairIiiEEEEEppB8ue170006Ev, symObjAddr: 0x1656C, symBinAddr: 0x10001A05C, symSize: 0x30 }
  - { offsetInCU: 0x11CA1, offset: 0x11CA1, size: 0x8, addend: 0x0, symName: __ZNKSt3__116reverse_iteratorINS0_IPNS_4pairIiiEEEEE4baseB8ue170006Ev, symObjAddr: 0x1659C, symBinAddr: 0x10001A08C, symSize: 0x20C }
  - { offsetInCU: 0x11CC8, offset: 0x11CC8, size: 0x8, addend: 0x0, symName: __ZNSt3__19allocatorINS_4pairIiiEEE7destroyB8ue170006EPS2_, symObjAddr: 0x167A8, symBinAddr: 0x10001A298, symSize: 0x14 }
  - { offsetInCU: 0x11D01, offset: 0x11D01, size: 0x8, addend: 0x0, symName: __ZNSt3__119__to_address_helperINS_16reverse_iteratorINS1_IPNS_4pairIiiEEEEEEvE6__callB8ue170006ERKS6_, symObjAddr: 0x167BC, symBinAddr: 0x10001A2AC, symSize: 0x58 }
  - { offsetInCU: 0x11D24, offset: 0x11D24, size: 0x8, addend: 0x0, symName: __ZNKSt3__116reverse_iteratorINS0_IPNS_4pairIiiEEEEEptB8ue170006Ev, symObjAddr: 0x16814, symBinAddr: 0x10001A304, symSize: 0x24 }
  - { offsetInCU: 0x11D4A, offset: 0x11D4A, size: 0x8, addend: 0x0, symName: __ZNKSt3__116reverse_iteratorINS0_IPNS_4pairIiiEEEEEdeB8ue170006Ev, symObjAddr: 0x16838, symBinAddr: 0x10001A328, symSize: 0x1EC }
  - { offsetInCU: 0x11D83, offset: 0x11D83, size: 0x8, addend: 0x0, symName: __ZNSt3__116reverse_iteratorIPNS_4pairIiiEEEmmB8ue170006Ev, symObjAddr: 0x16A24, symBinAddr: 0x10001A514, symSize: 0x6C }
  - { offsetInCU: 0x11DA9, offset: 0x11DA9, size: 0x8, addend: 0x0, symName: __ZNSt3__116reverse_iteratorINS0_IPNS_4pairIiiEEEEEC2B8ue170006ES4_, symObjAddr: 0x16A90, symBinAddr: 0x10001A580, symSize: 0x22C }
  - { offsetInCU: 0x11DE6, offset: 0x11DE6, size: 0x8, addend: 0x0, symName: __ZNSt3__116reverse_iteratorIPNS_4pairIiiEEEC2B8ue170006ES3_, symObjAddr: 0x16CBC, symBinAddr: 0x10001A7AC, symSize: 0xB8 }
  - { offsetInCU: 0x11E1E, offset: 0x11E1E, size: 0x8, addend: 0x0, symName: __ZNSt3__129_AllocatorDestroyRangeReverseINS_9allocatorINS_4pairIiiEEEEPS3_EC1B8ue170006ERS4_RS5_S8_, symObjAddr: 0x16F6C, symBinAddr: 0x10001AA5C, symSize: 0x44 }
  - { offsetInCU: 0x11E75, offset: 0x11E75, size: 0x8, addend: 0x0, symName: __ZNSt3__128__exception_guard_exceptionsINS_29_AllocatorDestroyRangeReverseINS_9allocatorINS_4pairIiiEEEEPS4_EEE10__completeB8ue170006Ev, symObjAddr: 0x16FB0, symBinAddr: 0x10001AAA0, symSize: 0x8C }
  - { offsetInCU: 0x11E9B, offset: 0x11E9B, size: 0x8, addend: 0x0, symName: __ZNSt3__128__exception_guard_exceptionsINS_29_AllocatorDestroyRangeReverseINS_9allocatorINS_4pairIiiEEEEPS4_EEED1B8ue170006Ev, symObjAddr: 0x1703C, symBinAddr: 0x10001AB2C, symSize: 0x2C }
  - { offsetInCU: 0x11EC5, offset: 0x11EC5, size: 0x8, addend: 0x0, symName: __ZNSt3__128__exception_guard_exceptionsINS_29_AllocatorDestroyRangeReverseINS_9allocatorINS_4pairIiiEEEEPS4_EEEC1B8ue170006ES7_, symObjAddr: 0x17068, symBinAddr: 0x10001AB58, symSize: 0x34 }
  - { offsetInCU: 0x11EFE, offset: 0x11EFE, size: 0x8, addend: 0x0, symName: __ZNSt3__128__exception_guard_exceptionsINS_29_AllocatorDestroyRangeReverseINS_9allocatorINS_4pairIiiEEEEPS4_EEEC2B8ue170006ES7_, symObjAddr: 0x1709C, symBinAddr: 0x10001AB8C, symSize: 0xA4 }
  - { offsetInCU: 0x11F37, offset: 0x11F37, size: 0x8, addend: 0x0, symName: __ZNSt3__129_AllocatorDestroyRangeReverseINS_9allocatorINS_4pairIiiEEEEPS3_EC2B8ue170006ERS4_RS5_S8_, symObjAddr: 0x17140, symBinAddr: 0x10001AC30, symSize: 0x104 }
  - { offsetInCU: 0x11F8E, offset: 0x11F8E, size: 0x8, addend: 0x0, symName: __ZNSt3__128__exception_guard_exceptionsINS_29_AllocatorDestroyRangeReverseINS_9allocatorINS_4pairIiiEEEEPS4_EEED2B8ue170006Ev, symObjAddr: 0x17244, symBinAddr: 0x10001AD34, symSize: 0xA8 }
  - { offsetInCU: 0x11FB8, offset: 0x11FB8, size: 0x8, addend: 0x0, symName: __ZNKSt3__129_AllocatorDestroyRangeReverseINS_9allocatorINS_4pairIiiEEEEPS3_EclB8ue170006Ev, symObjAddr: 0x172EC, symBinAddr: 0x10001ADDC, symSize: 0x39C }
  - { offsetInCU: 0x11FDF, offset: 0x11FDF, size: 0x8, addend: 0x0, symName: __ZNSt3__114__split_bufferINS_4pairIiiEERNS_9allocatorIS2_EEED2Ev, symObjAddr: 0x17940, symBinAddr: 0x10001B430, symSize: 0xEC }
  - { offsetInCU: 0x1200B, offset: 0x1200B, size: 0x8, addend: 0x0, symName: __ZNSt3__114__split_bufferINS_4pairIiiEERNS_9allocatorIS2_EEE5clearB8ue170006Ev, symObjAddr: 0x17A2C, symBinAddr: 0x10001B51C, symSize: 0x68 }
  - { offsetInCU: 0x12031, offset: 0x12031, size: 0x8, addend: 0x0, symName: __ZNSt3__116allocator_traitsINS_9allocatorINS_4pairIiiEEEEE10deallocateB8ue170006ERS4_PS3_m, symObjAddr: 0x17A94, symBinAddr: 0x10001B584, symSize: 0x34 }
  - { offsetInCU: 0x12073, offset: 0x12073, size: 0x8, addend: 0x0, symName: __ZNKSt3__114__split_bufferINS_4pairIiiEERNS_9allocatorIS2_EEE8capacityB8ue170006Ev, symObjAddr: 0x17AC8, symBinAddr: 0x10001B5B8, symSize: 0xBC }
  - { offsetInCU: 0x12099, offset: 0x12099, size: 0x8, addend: 0x0, symName: __ZNSt3__114__split_bufferINS_4pairIiiEERNS_9allocatorIS2_EEE17__destruct_at_endB8ue170006EPS2_, symObjAddr: 0x17B84, symBinAddr: 0x10001B674, symSize: 0x2C }
  - { offsetInCU: 0x120CD, offset: 0x120CD, size: 0x8, addend: 0x0, symName: __ZNSt3__114__split_bufferINS_4pairIiiEERNS_9allocatorIS2_EEE17__destruct_at_endB8ue170006EPS2_NS_17integral_constantIbLb0EEE, symObjAddr: 0x17BB0, symBinAddr: 0x10001B6A0, symSize: 0x120 }
  - { offsetInCU: 0x1210D, offset: 0x1210D, size: 0x8, addend: 0x0, symName: __ZNSt3__19allocatorINS_4pairIiiEEE10deallocateB8ue170006EPS2_m, symObjAddr: 0x17CD0, symBinAddr: 0x10001B7C0, symSize: 0x7C }
  - { offsetInCU: 0x1214F, offset: 0x1214F, size: 0x8, addend: 0x0, symName: __ZNKSt3__114__split_bufferINS_4pairIiiEERNS_9allocatorIS2_EEE9__end_capB8ue170006Ev, symObjAddr: 0x17D4C, symBinAddr: 0x10001B83C, symSize: 0x28 }
  - { offsetInCU: 0x12175, offset: 0x12175, size: 0x8, addend: 0x0, symName: __ZNKSt3__117__compressed_pairIPNS_4pairIiiEERNS_9allocatorIS2_EEE5firstB8ue170006Ev, symObjAddr: 0x17D74, symBinAddr: 0x10001B864, symSize: 0x24 }
  - { offsetInCU: 0x1219B, offset: 0x1219B, size: 0x8, addend: 0x0, symName: __ZNSt3__111__wrap_iterIPKNS_4pairIiiEEEC2B8ue170006IPS2_EERKNS0_IT_EEPNS_9enable_ifIXsr14is_convertibleIS8_S4_EE5valueEvE4typeE, symObjAddr: 0x17D98, symBinAddr: 0x10001B888, symSize: 0x84 }
  - { offsetInCU: 0x121E6, offset: 0x121E6, size: 0x8, addend: 0x0, symName: __ZNK7IsEqualclERKNSt3__14pairIiiEE, symObjAddr: 0x17E1C, symBinAddr: 0x10001B90C, symSize: 0x110 }
  - { offsetInCU: 0x1221A, offset: 0x1221A, size: 0x8, addend: 0x0, symName: __ZNSt3__18_IterOpsINS_17_ClassicAlgPolicyEE8distanceB8ue170006INS_11__wrap_iterIPNS_4pairIiiEEEEEENS_15iterator_traitsIT_E15difference_typeESA_SA_, symObjAddr: 0x183F8, symBinAddr: 0x10001BEE8, symSize: 0x350 }
  - { offsetInCU: 0x1225C, offset: 0x1225C, size: 0x8, addend: 0x0, symName: __ZNSt3__18_IterOpsINS_17_ClassicAlgPolicyEE7advanceB8ue170006INS_11__wrap_iterIPNS_4pairIiiEEEElEEvRT_T0_, symObjAddr: 0x18764, symBinAddr: 0x10001C254, symSize: 0x2C }
  - { offsetInCU: 0x1229F, offset: 0x1229F, size: 0x8, addend: 0x0, symName: __ZNSt3__111__wrap_iterIPNS_4pairIiiEEEpLB8ue170006El, symObjAddr: 0x18EB8, symBinAddr: 0x10001C9A8, symSize: 0x78 }
  - { offsetInCU: 0x122DD, offset: 0x122DD, size: 0x8, addend: 0x0, symName: __ZNKSt3__110__identityclB8ue170006IRNS_4pairIiiEEEEOT_S6_, symObjAddr: 0x18F30, symBinAddr: 0x10001CA20, symSize: 0x18 }
  - { offsetInCU: 0x1231A, offset: 0x1231A, size: 0x8, addend: 0x0, symName: __ZNSt3__16vectorINS_4pairIiiEENS_9allocatorIS2_EEE22__construct_one_at_endB8ue170006IJRKS2_EEEvDpOT_, symObjAddr: 0x18F48, symBinAddr: 0x10001CA38, symSize: 0x380 }
  - { offsetInCU: 0x1236F, offset: 0x1236F, size: 0x8, addend: 0x0, symName: __ZNSt3__114pointer_traitsIPKNS_4pairIiiEEE10pointer_toB8ue170006ERS3_, symObjAddr: 0x192C8, symBinAddr: 0x10001CDB8, symSize: 0x14 }
  - { offsetInCU: 0x12392, offset: 0x12392, size: 0x8, addend: 0x0, symName: __ZNSt3__114__split_bufferINS_4pairIiiEERNS_9allocatorIS2_EEE9push_backB8ue170006ERKS2_, symObjAddr: 0x192DC, symBinAddr: 0x10001CDCC, symSize: 0xA50 }
  - { offsetInCU: 0x12411, offset: 0x12411, size: 0x8, addend: 0x0, symName: __ZNSt3__116allocator_traitsINS_9allocatorINS_4pairIiiEEEEE9constructB8ue170006IS3_JRKS3_EvEEvRS4_PT_DpOT0_, symObjAddr: 0x19D2C, symBinAddr: 0x10001D81C, symSize: 0x34 }
  - { offsetInCU: 0x12468, offset: 0x12468, size: 0x8, addend: 0x0, symName: __ZNSt3__19allocatorINS_4pairIiiEEE9constructB8ue170006IS2_JRKS2_EEEvPT_DpOT0_, symObjAddr: 0x19D60, symBinAddr: 0x10001D850, symSize: 0x34 }
  - { offsetInCU: 0x124BE, offset: 0x124BE, size: 0x8, addend: 0x0, symName: __ZNSt3__14pairIimEC1B8ue170006ERKiRKm, symObjAddr: 0x19D94, symBinAddr: 0x10001D884, symSize: 0x3C }
  - { offsetInCU: 0x12504, offset: 0x12504, size: 0x8, addend: 0x0, symName: __ZNSt3__14pairIimEC2B8ue170006ERKiRKm, symObjAddr: 0x19DD0, symBinAddr: 0x10001D8C0, symSize: 0x188 }
  - { offsetInCU: 0x1254A, offset: 0x1254A, size: 0x8, addend: 0x0, symName: __ZNSt3__14pairIiiEC2B8ue170006IimEERKNS0_IT_T0_EE, symObjAddr: 0x19F58, symBinAddr: 0x10001DA48, symSize: 0x1B0 }
  - { offsetInCU: 0x12594, offset: 0x12594, size: 0x8, addend: 0x0, symName: __ZNSt3__16vectorINS_4pairIiiEENS_9allocatorIS2_EEEC2Em, symObjAddr: 0x1A108, symBinAddr: 0x10001DBF8, symSize: 0x4A4 }
  - { offsetInCU: 0x125EA, offset: 0x125EA, size: 0x8, addend: 0x0, symName: __ZNSt3__117__compressed_pairIPNS_4pairIiiEENS_9allocatorIS2_EEEC1B8ue170006IDnNS_18__default_init_tagEEEOT_OT0_, symObjAddr: 0x1A5AC, symBinAddr: 0x10001E09C, symSize: 0x3C }
  - { offsetInCU: 0x12642, offset: 0x12642, size: 0x8, addend: 0x0, symName: __ZNSt3__16vectorINS_4pairIiiEENS_9allocatorIS2_EEE16__destroy_vectorC1B8ue170006ERS5_, symObjAddr: 0x1A860, symBinAddr: 0x10001E350, symSize: 0x34 }
  - { offsetInCU: 0x1267B, offset: 0x1267B, size: 0x8, addend: 0x0, symName: __ZNSt3__16vectorINS_4pairIiiEENS_9allocatorIS2_EEE11__vallocateB8ue170006Em, symObjAddr: 0x1A894, symBinAddr: 0x10001E384, symSize: 0x420 }
  - { offsetInCU: 0x126C5, offset: 0x126C5, size: 0x8, addend: 0x0, symName: __ZNSt3__16vectorINS_4pairIiiEENS_9allocatorIS2_EEE18__construct_at_endEm, symObjAddr: 0x1ACB4, symBinAddr: 0x10001E7A4, symSize: 0x3F8 }
  - { offsetInCU: 0x1273F, offset: 0x1273F, size: 0x8, addend: 0x0, symName: __ZNSt3__128__exception_guard_exceptionsINS_6vectorINS_4pairIiiEENS_9allocatorIS3_EEE16__destroy_vectorEE10__completeB8ue170006Ev, symObjAddr: 0x1B0AC, symBinAddr: 0x10001EB9C, symSize: 0x8C }
  - { offsetInCU: 0x12765, offset: 0x12765, size: 0x8, addend: 0x0, symName: __ZNSt3__128__exception_guard_exceptionsINS_6vectorINS_4pairIiiEENS_9allocatorIS3_EEE16__destroy_vectorEED1B8ue170006Ev, symObjAddr: 0x1B138, symBinAddr: 0x10001EC28, symSize: 0x2C }
  - { offsetInCU: 0x1278F, offset: 0x1278F, size: 0x8, addend: 0x0, symName: __ZNSt3__117__compressed_pairIPNS_4pairIiiEENS_9allocatorIS2_EEEC2B8ue170006IDnNS_18__default_init_tagEEEOT_OT0_, symObjAddr: 0x1B164, symBinAddr: 0x10001EC54, symSize: 0x40 }
  - { offsetInCU: 0x127E7, offset: 0x127E7, size: 0x8, addend: 0x0, symName: __ZNSt3__122__compressed_pair_elemINS_9allocatorINS_4pairIiiEEEELi1ELb1EEC2B8ue170006ENS_18__default_init_tagE, symObjAddr: 0x1B1A4, symBinAddr: 0x10001EC94, symSize: 0x2C }
  - { offsetInCU: 0x1281B, offset: 0x1281B, size: 0x8, addend: 0x0, symName: __ZNSt3__19allocatorINS_4pairIiiEEEC2B8ue170006Ev, symObjAddr: 0x1B1D0, symBinAddr: 0x10001ECC0, symSize: 0x2C }
  - { offsetInCU: 0x12845, offset: 0x12845, size: 0x8, addend: 0x0, symName: __ZNSt3__116__non_trivial_ifILb1ENS_9allocatorINS_4pairIiiEEEEEC2B8ue170006Ev, symObjAddr: 0x1B1FC, symBinAddr: 0x10001ECEC, symSize: 0x14 }
  - { offsetInCU: 0x1286F, offset: 0x1286F, size: 0x8, addend: 0x0, symName: __ZNSt3__128__exception_guard_exceptionsINS_6vectorINS_4pairIiiEENS_9allocatorIS3_EEE16__destroy_vectorEEC1B8ue170006ES7_, symObjAddr: 0x1B210, symBinAddr: 0x10001ED00, symSize: 0x238 }
  - { offsetInCU: 0x128AC, offset: 0x128AC, size: 0x8, addend: 0x0, symName: __ZNSt3__128__exception_guard_exceptionsINS_6vectorINS_4pairIiiEENS_9allocatorIS3_EEE16__destroy_vectorEEC2B8ue170006ES7_, symObjAddr: 0x1B448, symBinAddr: 0x10001EF38, symSize: 0x264 }
  - { offsetInCU: 0x128E9, offset: 0x128E9, size: 0x8, addend: 0x0, symName: __ZNSt3__16vectorINS_4pairIiiEENS_9allocatorIS2_EEE16__destroy_vectorC2B8ue170006ERS5_, symObjAddr: 0x1B6AC, symBinAddr: 0x10001F19C, symSize: 0x70 }
  - { offsetInCU: 0x12922, offset: 0x12922, size: 0x8, addend: 0x0, symName: __ZNSt3__116allocator_traitsINS_9allocatorINS_4pairIiiEEEEE9constructB8ue170006IS3_JEvEEvRS4_PT_DpOT0_, symObjAddr: 0x1B71C, symBinAddr: 0x10001F20C, symSize: 0x2C }
  - { offsetInCU: 0x12964, offset: 0x12964, size: 0x8, addend: 0x0, symName: __ZNSt3__19allocatorINS_4pairIiiEEE9constructB8ue170006IS2_JEEEvPT_DpOT0_, symObjAddr: 0x1B748, symBinAddr: 0x10001F238, symSize: 0x28 }
  - { offsetInCU: 0x129A6, offset: 0x129A6, size: 0x8, addend: 0x0, symName: __ZNSt3__14pairIiiEC1B8ue170006Ev, symObjAddr: 0x1B770, symBinAddr: 0x10001F260, symSize: 0x2C }
  - { offsetInCU: 0x129D0, offset: 0x129D0, size: 0x8, addend: 0x0, symName: __ZNSt3__14pairIiiEC2B8ue170006Ev, symObjAddr: 0x1B79C, symBinAddr: 0x10001F28C, symSize: 0xEC }
  - { offsetInCU: 0x129FA, offset: 0x129FA, size: 0x8, addend: 0x0, symName: __ZNSt3__128__exception_guard_exceptionsINS_6vectorINS_4pairIiiEENS_9allocatorIS3_EEE16__destroy_vectorEED2B8ue170006Ev, symObjAddr: 0x1B888, symBinAddr: 0x10001F378, symSize: 0xA8 }
  - { offsetInCU: 0x12A24, offset: 0x12A24, size: 0x8, addend: 0x0, symName: __ZNSt3__16vectorINS_4pairIiiEENS_9allocatorIS2_EEE16__destroy_vectorclB8ue170006Ev, symObjAddr: 0x1B930, symBinAddr: 0x10001F420, symSize: 0x228 }
  - { offsetInCU: 0x12A4A, offset: 0x12A4A, size: 0x8, addend: 0x0, symName: __ZNSt3__16vectorINS_4pairIiiEENS_9allocatorIS2_EEE7__clearB8ue170006Ev, symObjAddr: 0x1BB58, symBinAddr: 0x10001F648, symSize: 0x64 }
  - { offsetInCU: 0x12A70, offset: 0x12A70, size: 0x8, addend: 0x0, symName: __ZNSt3__16vectorINS_4pairIiiEENS_9allocatorIS2_EEE22__base_destruct_at_endB8ue170006EPS2_, symObjAddr: 0x1BBBC, symBinAddr: 0x10001F6AC, symSize: 0x128 }
  - { offsetInCU: 0x12AB4, offset: 0x12AB4, size: 0x8, addend: 0x0, symName: __ZNSt3__16vectorINS_4pairIiiEENS_9allocatorIS2_EEED2B8ue170006Ev, symObjAddr: 0x1BCE4, symBinAddr: 0x10001F7D4, symSize: 0x1E0 }
  - { offsetInCU: 0x12ADF, offset: 0x12ADF, size: 0x8, addend: 0x0, symName: __ZNKSt3__16__lessIvvEclB8ue170006IiiEEbRKT_RKT0_, symObjAddr: 0x1C0AC, symBinAddr: 0x10001FB9C, symSize: 0x10C }
  - { offsetInCU: 0x12B33, offset: 0x12B33, size: 0x8, addend: 0x0, symName: __ZNSt3__16vectorIiNS_9allocatorIiEEE22__construct_one_at_endB8ue170006IJRKiEEEvDpOT_, symObjAddr: 0x1C1B8, symBinAddr: 0x10001FCA8, symSize: 0x380 }
  - { offsetInCU: 0x12B88, offset: 0x12B88, size: 0x8, addend: 0x0, symName: __ZNSt3__16vectorIiNS_9allocatorIiEEE21__push_back_slow_pathIRKiEEvOT_, symObjAddr: 0x1C538, symBinAddr: 0x100020028, symSize: 0x3D4 }
  - { offsetInCU: 0x12BED, offset: 0x12BED, size: 0x8, addend: 0x0, symName: __ZNSt3__116allocator_traitsINS_9allocatorIiEEE9constructB8ue170006IiJRKiEvEEvRS2_PT_DpOT0_, symObjAddr: 0x1C90C, symBinAddr: 0x1000203FC, symSize: 0x34 }
  - { offsetInCU: 0x12C44, offset: 0x12C44, size: 0x8, addend: 0x0, symName: __ZNSt3__19allocatorIiE9constructB8ue170006IiJRKiEEEvPT_DpOT0_, symObjAddr: 0x1C940, symBinAddr: 0x100020430, symSize: 0x104 }
  - { offsetInCU: 0x12C9A, offset: 0x12C9A, size: 0x8, addend: 0x0, symName: __ZNKSt3__16vectorIiNS_9allocatorIiEEE11__recommendB8ue170006Em, symObjAddr: 0x1CA44, symBinAddr: 0x100020534, symSize: 0x384 }
  - { offsetInCU: 0x12CF6, offset: 0x12CF6, size: 0x8, addend: 0x0, symName: __ZNSt3__114__split_bufferIiRNS_9allocatorIiEEEC1EmmS3_, symObjAddr: 0x1CDC8, symBinAddr: 0x1000208B8, symSize: 0x44 }
  - { offsetInCU: 0x12D4C, offset: 0x12D4C, size: 0x8, addend: 0x0, symName: __ZNSt3__114__split_bufferIiRNS_9allocatorIiEEED1Ev, symObjAddr: 0x1D378, symBinAddr: 0x100020E68, symSize: 0x2C }
  - { offsetInCU: 0x12D78, offset: 0x12D78, size: 0x8, addend: 0x0, symName: __ZNSt3__114__split_bufferIiRNS_9allocatorIiEEEC2EmmS3_, symObjAddr: 0x1D3A4, symBinAddr: 0x100020E94, symSize: 0x520 }
  - { offsetInCU: 0x12DF3, offset: 0x12DF3, size: 0x8, addend: 0x0, symName: __ZNSt3__117__compressed_pairIPiRNS_9allocatorIiEEEC1B8ue170006IDnS4_EEOT_OT0_, symObjAddr: 0x1D8C4, symBinAddr: 0x1000213B4, symSize: 0x3C }
  - { offsetInCU: 0x12E4B, offset: 0x12E4B, size: 0x8, addend: 0x0, symName: __ZNSt3__114__split_bufferIiRNS_9allocatorIiEEE7__allocB8ue170006Ev, symObjAddr: 0x1D900, symBinAddr: 0x1000213F0, symSize: 0x28 }
  - { offsetInCU: 0x12E71, offset: 0x12E71, size: 0x8, addend: 0x0, symName: __ZNSt3__114__split_bufferIiRNS_9allocatorIiEEE9__end_capB8ue170006Ev, symObjAddr: 0x1D928, symBinAddr: 0x100021418, symSize: 0x28 }
  - { offsetInCU: 0x12E97, offset: 0x12E97, size: 0x8, addend: 0x0, symName: __ZNSt3__117__compressed_pairIPiRNS_9allocatorIiEEEC2B8ue170006IDnS4_EEOT_OT0_, symObjAddr: 0x1D950, symBinAddr: 0x100021440, symSize: 0x48 }
  - { offsetInCU: 0x12EEF, offset: 0x12EEF, size: 0x8, addend: 0x0, symName: __ZNSt3__122__compressed_pair_elemIRNS_9allocatorIiEELi1ELb0EEC2B8ue170006IS3_vEEOT_, symObjAddr: 0x1D998, symBinAddr: 0x100021488, symSize: 0x70 }
  - { offsetInCU: 0x12F31, offset: 0x12F31, size: 0x8, addend: 0x0, symName: __ZNSt3__117__compressed_pairIPiRNS_9allocatorIiEEE6secondB8ue170006Ev, symObjAddr: 0x1DA08, symBinAddr: 0x1000214F8, symSize: 0x28 }
  - { offsetInCU: 0x12F57, offset: 0x12F57, size: 0x8, addend: 0x0, symName: __ZNSt3__122__compressed_pair_elemIRNS_9allocatorIiEELi1ELb0EE5__getB8ue170006Ev, symObjAddr: 0x1DA30, symBinAddr: 0x100021520, symSize: 0x60 }
  - { offsetInCU: 0x12F7D, offset: 0x12F7D, size: 0x8, addend: 0x0, symName: __ZNSt3__117__compressed_pairIPiRNS_9allocatorIiEEE5firstB8ue170006Ev, symObjAddr: 0x1DA90, symBinAddr: 0x100021580, symSize: 0x24 }
  - { offsetInCU: 0x12FA3, offset: 0x12FA3, size: 0x8, addend: 0x0, symName: __ZNSt3__116reverse_iteratorIPiEC1B8ue170006ES1_, symObjAddr: 0x1E004, symBinAddr: 0x100021AF4, symSize: 0x34 }
  - { offsetInCU: 0x12FDB, offset: 0x12FDB, size: 0x8, addend: 0x0, symName: __ZNKSt3__116reverse_iteratorIPiE4baseB8ue170006Ev, symObjAddr: 0x1E038, symBinAddr: 0x100021B28, symSize: 0x64 }
  - { offsetInCU: 0x13001, offset: 0x13001, size: 0x8, addend: 0x0, symName: __ZNKSt3__116reverse_iteratorIPiEdeB8ue170006Ev, symObjAddr: 0x1E344, symBinAddr: 0x100021E34, symSize: 0x74 }
  - { offsetInCU: 0x13035, offset: 0x13035, size: 0x8, addend: 0x0, symName: __ZNSt3__116reverse_iteratorIPiEppB8ue170006Ev, symObjAddr: 0x1E3B8, symBinAddr: 0x100021EA8, symSize: 0x6C }
  - { offsetInCU: 0x13060, offset: 0x13060, size: 0x8, addend: 0x0, symName: __ZNSt3__119__to_address_helperINS_16reverse_iteratorIPiEEvE6__callB8ue170006ERKS3_, symObjAddr: 0x1E8D4, symBinAddr: 0x1000223C4, symSize: 0x58 }
  - { offsetInCU: 0x13083, offset: 0x13083, size: 0x8, addend: 0x0, symName: __ZNKSt3__116reverse_iteratorIPiEptB8ue170006Ev, symObjAddr: 0x1E92C, symBinAddr: 0x10002241C, symSize: 0x24 }
  - { offsetInCU: 0x130C2, offset: 0x130C2, size: 0x8, addend: 0x0, symName: __ZNKSt3__111__move_loopINS_17_ClassicAlgPolicyEEclB8ue170006INS_16reverse_iteratorIPiEES6_S6_EENS_4pairIT_T1_EES8_T0_S9_, symObjAddr: 0x1FE60, symBinAddr: 0x100023950, symSize: 0x3F8 }
  - { offsetInCU: 0x1313F, offset: 0x1313F, size: 0x8, addend: 0x0, symName: __ZNSt3__18_IterOpsINS_17_ClassicAlgPolicyEE11__iter_moveB8ue170006IRNS_16reverse_iteratorIPiEEEENS_9enable_ifIXsr12is_referenceIDTdeclsr3stdE7declvalIRT_EEEEE5valueEDTclsr3stdE4movedeclsr3stdE7declvalISA_EEEEE4typeEOS9_, symObjAddr: 0x20D4C, symBinAddr: 0x10002483C, symSize: 0x28 }
  - { offsetInCU: 0x1316B, offset: 0x1316B, size: 0x8, addend: 0x0, symName: __ZNSt3__18_IterOpsINS_17_ClassicAlgPolicyEE25__validate_iter_referenceB8ue170006IRNS_16reverse_iteratorIPiEEEEvv, symObjAddr: 0x20D74, symBinAddr: 0x100024864, symSize: 0x4 }
  - { offsetInCU: 0x13189, offset: 0x13189, size: 0x8, addend: 0x0, symName: __ZNSt3__118__unwrap_iter_implINS_16reverse_iteratorIPiEELb0EE8__unwrapB8ue170006ES3_, symObjAddr: 0x20D78, symBinAddr: 0x100024868, symSize: 0x274 }
  - { offsetInCU: 0x131B0, offset: 0x131B0, size: 0x8, addend: 0x0, symName: __ZNSt3__14pairINS_16reverse_iteratorIPiEES3_EC1B8ue170006ERKS3_S6_, symObjAddr: 0x20FEC, symBinAddr: 0x100024ADC, symSize: 0x3C }
  - { offsetInCU: 0x131F6, offset: 0x131F6, size: 0x8, addend: 0x0, symName: __ZNSt3__14pairINS_16reverse_iteratorIPiEES3_EC2B8ue170006ERKS3_S6_, symObjAddr: 0x21028, symBinAddr: 0x100024B18, symSize: 0x54 }
  - { offsetInCU: 0x1323C, offset: 0x1323C, size: 0x8, addend: 0x0, symName: __ZNSt3__118__unwrap_iter_implINS_16reverse_iteratorIPiEELb0EE8__rewrapB8ue170006ES3_S3_, symObjAddr: 0x2107C, symBinAddr: 0x100024B6C, symSize: 0x2E0 }
  - { offsetInCU: 0x13271, offset: 0x13271, size: 0x8, addend: 0x0, symName: __ZNSt3__116reverse_iteratorIPiEC2B8ue170006ES1_, symObjAddr: 0x2135C, symBinAddr: 0x100024E4C, symSize: 0xB8 }
  - { offsetInCU: 0x132A9, offset: 0x132A9, size: 0x8, addend: 0x0, symName: __ZNSt3__114__split_bufferIiRNS_9allocatorIiEEED2Ev, symObjAddr: 0x21414, symBinAddr: 0x100024F04, symSize: 0xEC }
  - { offsetInCU: 0x132D5, offset: 0x132D5, size: 0x8, addend: 0x0, symName: __ZNSt3__114__split_bufferIiRNS_9allocatorIiEEE5clearB8ue170006Ev, symObjAddr: 0x21500, symBinAddr: 0x100024FF0, symSize: 0x68 }
  - { offsetInCU: 0x132FB, offset: 0x132FB, size: 0x8, addend: 0x0, symName: __ZNKSt3__114__split_bufferIiRNS_9allocatorIiEEE8capacityB8ue170006Ev, symObjAddr: 0x21568, symBinAddr: 0x100025058, symSize: 0xBC }
  - { offsetInCU: 0x13321, offset: 0x13321, size: 0x8, addend: 0x0, symName: __ZNSt3__114__split_bufferIiRNS_9allocatorIiEEE17__destruct_at_endB8ue170006EPi, symObjAddr: 0x21624, symBinAddr: 0x100025114, symSize: 0x2C }
  - { offsetInCU: 0x13355, offset: 0x13355, size: 0x8, addend: 0x0, symName: __ZNSt3__114__split_bufferIiRNS_9allocatorIiEEE17__destruct_at_endB8ue170006EPiNS_17integral_constantIbLb0EEE, symObjAddr: 0x21650, symBinAddr: 0x100025140, symSize: 0x120 }
  - { offsetInCU: 0x13395, offset: 0x13395, size: 0x8, addend: 0x0, symName: __ZNKSt3__114__split_bufferIiRNS_9allocatorIiEEE9__end_capB8ue170006Ev, symObjAddr: 0x21770, symBinAddr: 0x100025260, symSize: 0x28 }
  - { offsetInCU: 0x133BB, offset: 0x133BB, size: 0x8, addend: 0x0, symName: __ZNKSt3__117__compressed_pairIPiRNS_9allocatorIiEEE5firstB8ue170006Ev, symObjAddr: 0x21798, symBinAddr: 0x100025288, symSize: 0x24 }
  - { offsetInCU: 0x133E1, offset: 0x133E1, size: 0x8, addend: 0x0, symName: __ZNSt3__16vectorINS_4pairIiiEENS_9allocatorIS2_EEE19__copy_assign_allocB8ue170006ERKS5_, symObjAddr: 0x217BC, symBinAddr: 0x1000252AC, symSize: 0x2C }
  - { offsetInCU: 0x13416, offset: 0x13416, size: 0x8, addend: 0x0, symName: __ZNSt3__16vectorINS_4pairIiiEENS_9allocatorIS2_EEE6assignIPS2_Li0EEEvT_S8_, symObjAddr: 0x217E8, symBinAddr: 0x1000252D8, symSize: 0x5C }
  - { offsetInCU: 0x1346B, offset: 0x1346B, size: 0x8, addend: 0x0, symName: __ZNSt3__16vectorINS_4pairIiiEENS_9allocatorIS2_EEE19__copy_assign_allocB8ue170006ERKS5_NS_17integral_constantIbLb0EEE, symObjAddr: 0x21844, symBinAddr: 0x100025334, symSize: 0x14 }
  - { offsetInCU: 0x134A7, offset: 0x134A7, size: 0x8, addend: 0x0, symName: __ZNSt3__16vectorINS_4pairIiiEENS_9allocatorIS2_EEE18__assign_with_sizeB8ue170006IPS2_S7_EEvT_T0_l, symObjAddr: 0x21858, symBinAddr: 0x100025348, symSize: 0x3EC }
  - { offsetInCU: 0x1355E, offset: 0x1355E, size: 0x8, addend: 0x0, symName: __ZNSt3__16vectorINS_4pairIiiEENS_9allocatorIS2_EEE18__construct_at_endIPS2_S7_EEvT_T0_m, symObjAddr: 0x220FC, symBinAddr: 0x100025BEC, symSize: 0x394 }
  - { offsetInCU: 0x135DC, offset: 0x135DC, size: 0x8, addend: 0x0, symName: __ZNSt3__16vectorINS_4pairIiiEENS_9allocatorIS2_EEE17__destruct_at_endB8ue170006EPS2_, symObjAddr: 0x226BC, symBinAddr: 0x1000261AC, symSize: 0x4C }
  - { offsetInCU: 0x13620, offset: 0x13620, size: 0x8, addend: 0x0, symName: __ZNSt3__16vectorINS_4pairIiiEENS_9allocatorIS2_EEE13__vdeallocateEv, symObjAddr: 0x22708, symBinAddr: 0x1000261F8, symSize: 0x194 }
  - { offsetInCU: 0x13648, offset: 0x13648, size: 0x8, addend: 0x0, symName: __ZNSt3__116allocator_traitsINS_9allocatorINS_4pairIiiEEEEE9constructB8ue170006IS3_JRS3_EvEEvRS4_PT_DpOT0_, symObjAddr: 0x2315C, symBinAddr: 0x100026C4C, symSize: 0x34 }
  - { offsetInCU: 0x1369F, offset: 0x1369F, size: 0x8, addend: 0x0, symName: __ZNSt3__19allocatorINS_4pairIiiEEE9constructB8ue170006IS2_JRS2_EEEvPT_DpOT0_, symObjAddr: 0x23190, symBinAddr: 0x100026C80, symSize: 0x34 }
  - { offsetInCU: 0x136FF, offset: 0x136FF, size: 0x8, addend: 0x0, symName: __ZNKSt3__111__copy_loopINS_17_ClassicAlgPolicyEEclB8ue170006IPNS_4pairIiiEES6_S6_EENS4_IT_T1_EES7_T0_S8_, symObjAddr: 0x23994, symBinAddr: 0x100027484, symSize: 0x458 }
  - { offsetInCU: 0x13774, offset: 0x13774, size: 0x8, addend: 0x0, symName: __ZNSt3__16vectorINS_4pairIiiEENS_9allocatorIS2_EEE5clearB8ue170006Ev, symObjAddr: 0x23DEC, symBinAddr: 0x1000278DC, symSize: 0x44 }
  - { offsetInCU: 0x137A9, offset: 0x137A9, size: 0x8, addend: 0x0, symName: __ZNSt3__112basic_stringIcNS_11char_traitsIcEENS_9allocatorIcEEEC2B8ue170006ILi0EEEPKc, symObjAddr: 0x23E58, symBinAddr: 0x100027948, symSize: 0x210 }
...
